(dp0
S'4025'
p1
(dp2
S'state'
p3
S'qld'
p4
sS'district'
p5
S'bulwer'
p6
ssS'4022'
p7
(dp8
g3
S'qld'
p9
sg5
S'rothwell'
p10
ssS'4020'
p11
(dp12
g3
S'qld'
p13
sg5
S'redcliffe'
p14
ssS'4021'
p15
(dp16
g3
S'qld'
p17
sg5
S'kippa-ring'
p18
ssS'4029'
p19
(dp20
g3
S'qld'
p21
sg5
S'royal brisbane hospital'
p22
ssS'3996'
p23
(dp24
g3
S'vic'
p25
sg5
S'inverloch'
p26
ssS'3995'
p27
(dp28
g3
S'vic'
p29
sg5
S'anderson'
p30
ssS'3992'
p31
(dp32
g3
S'vic'
p33
sg5
S'blackwood forest'
p34
ssS'3991'
p35
(dp36
g3
S'vic'
p37
sg5
S'bass'
p38
ssS'3990'
p39
(dp40
g3
S'vic'
p41
sg5
S'glen forbes'
p42
ssS'6150'
p43
(dp44
g3
S'wa'
p45
sg5
S'bateman'
p46
ssS'6151'
p47
(dp48
g3
S'wa'
p49
sg5
S'kensington'
p50
ssS'6152'
p51
(dp52
g3
S'wa'
p53
sg5
S'como'
p54
ssS'6153'
p55
(dp56
g3
S'wa'
p57
sg5
S'applecross'
p58
ssS'6154'
p59
(dp60
g3
S'wa'
p61
sg5
S'alfred cove'
p62
ssS'6155'
p63
(dp64
g3
S'wa'
p65
sg5
S'canning vale'
p66
ssS'6156'
p67
(dp68
g3
S'wa'
p69
sg5
S'attadale'
p70
ssS'6157'
p71
(dp72
g3
S'wa'
p73
sg5
S'bicton'
p74
ssS'6158'
p75
(dp76
g3
S'wa'
p77
sg5
S'east fremantle'
p78
ssS'6159'
p79
(dp80
g3
S'wa'
p81
sg5
S'north fremantle'
p82
ssS'6353'
p83
(dp84
g3
S'wa'
p85
sg5
S'beenong'
p86
ssS'4732'
p87
(dp88
g3
S'qld'
p89
sg5
S'muttaburra'
p90
ssS'4733'
p91
(dp92
g3
S'qld'
p93
sg5
S'corfield'
p94
ssS'4730'
p95
(dp96
g3
S'qld'
p97
sg5
S'camoola'
p98
ssS'4731'
p99
(dp100
g3
S'qld'
p101
sg5
S'isisford'
p102
ssS'4736'
p103
(dp104
g3
S'qld'
p105
sg5
S'jundah'
p106
ssS'4737'
p107
(dp108
g3
S'qld'
p109
sg5
S'armstrong beach'
p110
ssS'2318'
p111
(dp112
g3
S'nsw'
p113
sg5
S'campvale'
p114
ssS'2319'
p115
(dp116
g3
S'nsw'
p117
sg5
S'lemon tree passage'
p118
ssS'2316'
p119
(dp120
g3
S'nsw'
p121
sg5
S'anna bay'
p122
ssS'2317'
p123
(dp124
g3
S'nsw'
p125
sg5
S'salamander bay'
p126
ssS'2314'
p127
(dp128
g3
S'nsw'
p129
sg5
S'williamtown raaf'
p130
ssS'2315'
p131
(dp132
g3
S'nsw'
p133
sg5
S'corlette'
p134
ssS'2312'
p135
(dp136
g3
S'nsw'
p137
sg5
S'minimbah'
p138
ssS'6798'
p139
(dp140
g3
S'wa'
p141
sg5
S'christmas island'
p142
ssS'2311'
p143
(dp144
g3
S'nsw'
p145
sg5
S'allynbrook'
p146
ssS'4830'
p147
(dp148
g3
S'qld'
p149
sg5
S'burketown'
p150
ssS'6726'
p151
(dp152
g3
S'wa'
p153
sg5
S'cable beach'
p154
ssS'3770'
p155
(dp156
g3
S'vic'
p157
sg5
S'coldstream'
p158
ssS'3777'
p159
(dp160
g3
S'vic'
p161
sg5
S'badger creek'
p162
ssS'3775'
p163
(dp164
g3
S'vic'
p165
sg5
S'christmas hills'
p166
ssS'3779'
p167
(dp168
g3
S'vic'
p169
sg5
S'cambarville'
p170
ssS'3778'
p171
(dp172
g3
S'vic'
p173
sg5
S'fernshaw'
p174
ssS'4655'
p175
(dp176
g3
S'qld'
p177
sg5
S'booral'
p178
ssS'4521'
p179
(dp180
g3
S'qld'
p181
sg5
S'campbells pocket'
p182
ssS'6359'
p183
(dp184
g3
S'wa'
p185
sg5
S'forrestania'
p186
ssS'4659'
p187
(dp188
g3
S'qld'
p189
sg5
S'beelbi creek'
p190
ssS'6728'
p191
(dp192
g3
S'wa'
p193
sg5
S'camballin'
p194
ssS'2262'
p195
(dp196
g3
S'nsw'
p197
sg5
S'blue haven'
p198
ssS'2263'
p199
(dp200
g3
S'nsw'
p201
sg5
S'canton beach'
p202
ssS'2260'
p203
(dp204
g3
S'nsw'
p205
sg5
S'erina heights'
p206
ssS'2261'
p207
(dp208
g3
S'nsw'
p209
sg5
S'bateau bay'
p210
ssS'2267'
p211
(dp212
g3
S'nsw'
p213
sg5
S'wangi wangi'
p214
ssS'2264'
p215
(dp216
g3
S'nsw'
p217
sg5
S'balcolyn'
p218
ssS'2265'
p219
(dp220
g3
S'nsw'
p221
sg5
S'cooranbong'
p222
ssS'2443'
p223
(dp224
g3
S'nsw'
p225
sg5
S'bobs creek'
p226
ssS'2440'
p227
(dp228
g3
S'nsw'
p229
sg5
S'aldavilla'
p230
ssS'2441'
p231
(dp232
g3
S'nsw'
p233
sg5
S'allgomera'
p234
ssS'2446'
p235
(dp236
g3
S'nsw'
p237
sg5
S'bagnoo'
p238
ssS'2447'
p239
(dp240
g3
S'nsw'
p241
sg5
S'bakers creek'
p242
ssS'2444'
p243
(dp244
g3
S'nsw'
p245
sg5
S'blackmans point'
p246
ssS'2445'
p247
(dp248
g3
S'nsw'
p249
sg5
S'bonny hills'
p250
ssS'2448'
p251
(dp252
g3
S'nsw'
p253
sg5
S'hyland park'
p254
ssS'2449'
p255
(dp256
g3
S'nsw'
p257
sg5
S'argents hill'
p258
ssS'6055'
p259
(dp260
g3
S'wa'
p261
sg5
S'caversham'
p262
ssS'6054'
p263
(dp264
g3
S'wa'
p265
sg5
S'ashfield'
p266
ssS'6057'
p267
(dp268
g3
S'wa'
p269
sg5
S'high wycombe'
p270
ssS'2046'
p271
(dp272
g3
S'nsw'
p273
sg5
S'abbotsford'
p274
ssS'2047'
p275
(dp276
g3
S'nsw'
p277
sg5
S'drummoyne'
p278
ssS'2044'
p279
(dp280
g3
S'nsw'
p281
sg5
S'st peters'
p282
ssS'2045'
p283
(dp284
g3
S'nsw'
p285
sg5
S'haberfield'
p286
ssS'2042'
p287
(dp288
g3
S'nsw'
p289
sg5
S'enmore'
p290
ssS'2043'
p291
(dp292
g3
S'nsw'
p293
sg5
S'erskineville'
p294
ssS'2040'
p295
(dp296
g3
S'nsw'
p297
sg5
S'leichhardt'
p298
ssS'2041'
p299
(dp300
g3
S'nsw'
p301
sg5
S'balmain'
p302
ssS'6051'
p303
(dp304
g3
S'wa'
p305
sg5
S'maylands'
p306
ssS'4819'
p307
(dp308
g3
S'qld'
p309
sg5
S'arcadia'
p310
ssS'4818'
p311
(dp312
g3
S'qld'
p313
sg5
S'beach holm'
p314
ssS'2048'
p315
(dp316
g3
S'nsw'
p317
sg5
S'stanmore'
p318
ssS'2049'
p319
(dp320
g3
S'nsw'
p321
sg5
S'lewisham'
p322
ssS'6053'
p323
(dp324
g3
S'wa'
p325
sg5
S'bayswater'
p326
ssS'6370'
p327
(dp328
g3
S'wa'
p329
sg5
S'east wickepin'
p330
ssS'6372'
p331
(dp332
g3
S'wa'
p333
sg5
S'yealering'
p334
ssS'6052'
p335
(dp336
g3
S'wa'
p337
sg5
S'bedford'
p338
ssS'6375'
p339
(dp340
g3
S'wa'
p341
sg5
S'adamsvale'
p342
ssS'2839'
p343
(dp344
g3
S'nsw'
p345
sg5
S'bogan'
p346
ssS'2835'
p347
(dp348
g3
S'nsw'
p349
sg5
S'bulla'
p350
ssS'3518'
p351
(dp352
g3
S'vic'
p353
sg5
S'berrimal'
p354
ssS'7268'
p355
(dp356
g3
S'tas'
p357
sg5
S'lilydale'
p358
ssS'7265'
p359
(dp360
g3
S'tas'
p361
sg5
S'banca'
p362
ssS'3512'
p363
(dp364
g3
S'vic'
p365
sg5
S'carina'
p366
ssS'7267'
p367
(dp368
g3
S'tas'
p369
sg5
S'bangor'
p370
ssS'6765'
p371
(dp372
g3
S'wa'
p373
sg5
S'fitzroy crossing'
p374
ssS'7261'
p375
(dp376
g3
S'tas'
p377
sg5
S'branxholm'
p378
ssS'3516'
p379
(dp380
g3
S'vic'
p381
sg5
S'bridgewater'
p382
ssS'7263'
p383
(dp384
g3
S'tas'
p385
sg5
S'alberton'
p386
ssS'7262'
p387
(dp388
g3
S'tas'
p389
sg5
S'bridport'
p390
ssS'6207'
p391
(dp392
g3
S'wa'
p393
sg5
S'myara'
p394
ssS'2680'
p395
(dp396
g3
S'nsw'
p397
sg5
S'beelbangera'
p398
ssS'2681'
p399
(dp400
g3
S'nsw'
p401
sg5
S'myall park'
p402
ssS'6809'
p403
(dp404
g3
S'wa'
p405
sg5
S'perth'
p406
ssS'6800'
p407
(dp408
g3
S'wa'
p409
sg5
S'perth'
p410
ssS'2630'
p411
(dp412
g3
S'nsw'
p413
sg5
S'arable'
p414
ssS'1435'
p415
(dp416
g3
S'nsw'
p417
sg5
S'alexandria'
p418
ssS'3207'
p419
(dp420
g3
S'vic'
p421
sg5
S'garden city'
p422
ssS'3206'
p423
(dp424
g3
S'vic'
p425
sg5
S'albert park'
p426
ssS'3205'
p427
(dp428
g3
S'vic'
p429
sg5
S'south melbourne'
p430
ssS'3204'
p431
(dp432
g3
S'vic'
p433
sg5
S'bentleigh'
p434
ssS'3202'
p435
(dp436
g3
S'vic'
p437
sg5
S'heatherton'
p438
ssS'3201'
p439
(dp440
g3
S'vic'
p441
sg5
S'carrum downs'
p442
ssS'3200'
p443
(dp444
g3
S'vic'
p445
sg5
S'frankston north'
p446
ssS'5400'
p447
(dp448
g3
S'sa'
p449
sg5
S'magdalla'
p450
ssS'2864'
p451
(dp452
g3
S'nsw'
p453
sg5
S'boree'
p454
ssS'2865'
p455
(dp456
g3
S'nsw'
p457
sg5
S'bocobra'
p458
ssS'2866'
p459
(dp460
g3
S'nsw'
p461
sg5
S'amaroo'
p462
ssS'2867'
p463
(dp464
g3
S'nsw'
p465
sg5
S'baldry'
p466
ssS'2868'
p467
(dp468
g3
S'nsw'
p469
sg5
S'bournewood'
p470
ssS'3016'
p471
(dp472
g3
S'vic'
p473
sg5
S'williamstown'
p474
ssS'6012'
p475
(dp476
g3
S'wa'
p477
sg5
S'mosman park'
p478
ssS'1199'
p479
(dp480
g3
S'nsw'
p481
sg5
S'sydney'
p482
ssS'1198'
p483
(dp484
g3
S'nsw'
p485
sg5
S'sydney'
p486
ssS'3342'
p487
(dp488
g3
S'vic'
p489
sg5
S'ballan'
p490
ssS'5451'
p491
(dp492
g3
S'sa'
p493
sg5
S'auburn'
p494
ssS'5452'
p495
(dp496
g3
S'sa'
p497
sg5
S'leasingham'
p498
ssS'5453'
p499
(dp500
g3
S'sa'
p501
sg5
S'armagh'
p502
ssS'5454'
p503
(dp504
g3
S'sa'
p505
sg5
S'andrews'
p506
ssS'5455'
p507
(dp508
g3
S'sa'
p509
sg5
S'hilltown'
p510
ssS'1197'
p511
(dp512
g3
S'nsw'
p513
sg5
S'sydney'
p514
ssS'3345'
p515
(dp516
g3
S'vic'
p517
sg5
S'gordon'
p518
ssS'1755'
p519
(dp520
g3
S'nsw'
p521
sg5
S'baulkham hills'
p522
ssS'1750'
p523
(dp524
g3
S'nsw'
p525
sg5
S'north parramatta'
p526
ssS'1177'
p527
(dp528
g3
S'nsw'
p529
sg5
S'sydney'
p530
ssS'1176'
p531
(dp532
g3
S'nsw'
p533
sg5
S'sydney'
p534
ssS'1175'
p535
(dp536
g3
S'nsw'
p537
sg5
S'sydney'
p538
ssS'1174'
p539
(dp540
g3
S'nsw'
p541
sg5
S'sydney'
p542
ssS'1173'
p543
(dp544
g3
S'nsw'
p545
sg5
S'sydney'
p546
ssS'1172'
p547
(dp548
g3
S'nsw'
p549
sg5
S'sydney'
p550
ssS'1171'
p551
(dp552
g3
S'nsw'
p553
sg5
S'sydney'
p554
ssS'1170'
p555
(dp556
g3
S'nsw'
p557
sg5
S'sydney'
p558
ssS'1816'
p559
(dp560
g3
S'nsw'
p561
sg5
S'strathfield'
p562
ssS'1179'
p563
(dp564
g3
S'nsw'
p565
sg5
S'sydney'
p566
ssS'1178'
p567
(dp568
g3
S'nsw'
p569
sg5
S'sydney'
p570
ssS'6260'
p571
(dp572
g3
S'wa'
p573
sg5
S'beedelup'
p574
ssS'7180'
p575
(dp576
g3
S'tas'
p577
sg5
S'taranna'
p578
ssS'7182'
p579
(dp580
g3
S'tas'
p581
sg5
S'fortescue'
p582
ssS'1570'
p583
(dp584
g3
S'nsw'
p585
sg5
S'artarmon'
p586
ssS'7184'
p587
(dp588
g3
S'tas'
p589
sg5
S'nubeena'
p590
ssS'7185'
p591
(dp592
g3
S'tas'
p593
sg5
S'premaydena'
p594
ssS'7186'
p595
(dp596
g3
S'tas'
p597
sg5
S'saltwater river'
p598
ssS'7187'
p599
(dp600
g3
S'tas'
p601
sg5
S'koonya'
p602
ssS'8388'
p603
(dp604
g3
S'vic'
p605
sg5
S'melbourne'
p606
ssS'8386'
p607
(dp608
g3
S'vic'
p609
sg5
S'melbourne'
p610
ssS'8383'
p611
(dp612
g3
S'vic'
p613
sg5
S'melbourne'
p614
ssS'1225'
p615
(dp616
g3
S'nsw'
p617
sg5
S'royal exchange'
p618
ssS'2659'
p619
(dp620
g3
S'nsw'
p621
sg5
S'alma park'
p622
ssS'6760'
p623
(dp624
g3
S'wa'
p625
sg5
S'marble bar'
p626
ssS'3498'
p627
(dp628
g3
S'vic'
p629
sg5
S'irymple'
p630
ssS'871'
p631
(dp632
g3
S'nt'
p633
sg5
S'alice springs'
p634
ssS'8011'
p635
(dp636
g3
S'vic'
p637
sg5
S'little lonsdale street'
p638
ssS'8010'
p639
(dp640
g3
S'vic'
p641
sg5
S'law courts'
p642
ssS'4388'
p643
(dp644
g3
S'qld'
p645
sg5
S'kurumbul'
p646
ssS'1221'
p647
(dp648
g3
S'nsw'
p649
sg5
S'royal exchange'
p650
ssS'6574'
p651
(dp652
g3
S'wa'
p653
sg5
S'bindi bindi'
p654
ssS'6575'
p655
(dp656
g3
S'wa'
p657
sg5
S'miling'
p658
ssS'4383'
p659
(dp660
g3
S'qld'
p661
sg5
S'wallangarra'
p662
ssS'2747'
p663
(dp664
g3
S'nsw'
p665
sg5
S'cambridge gardens'
p666
ssS'4381'
p667
(dp668
g3
S'qld'
p669
sg5
S'glen aplin'
p670
ssS'4380'
p671
(dp672
g3
S'qld'
p673
sg5
S'broadwater'
p674
ssS'4387'
p675
(dp676
g3
S'qld'
p677
sg5
S'brush creek'
p678
ssS'4385'
p679
(dp680
g3
S'qld'
p681
sg5
S'beebo'
p682
ssS'4384'
p683
(dp684
g3
S'qld'
p685
sg5
S'limevale'
p686
ssS'2745'
p687
(dp688
g3
S'nsw'
p689
sg5
S'glenmore park'
p690
ssS'4849'
p691
(dp692
g3
S'qld'
p693
sg5
S'cardwell'
p694
ssS'3835'
p695
(dp696
g3
S'vic'
p697
sg5
S'thorpdale'
p698
ssS'3831'
p699
(dp700
g3
S'vic'
p701
sg5
S'neerim'
p702
ssS'3832'
p703
(dp704
g3
S'vic'
p705
sg5
S'nayook'
p706
ssS'3833'
p707
(dp708
g3
S'vic'
p709
sg5
S'ada'
p710
ssS'2030'
p711
(dp712
g3
S'nsw'
p713
sg5
S'dover heights'
p714
ssS'4031'
p715
(dp716
g3
S'qld'
p717
sg5
S'gordon park'
p718
ssS'4030'
p719
(dp720
g3
S'qld'
p721
sg5
S'lutwyche'
p722
ssS'4032'
p723
(dp724
g3
S'qld'
p725
sg5
S'chermside'
p726
ssS'4035'
p727
(dp728
g3
S'qld'
p729
sg5
S'albany creek'
p730
ssS'4034'
p731
(dp732
g3
S'qld'
p733
sg5
S'aspley'
p734
ssS'4037'
p735
(dp736
g3
S'qld'
p737
sg5
S'eatons hill'
p738
ssS'4036'
p739
(dp740
g3
S'qld'
p741
sg5
S'bald hills'
p742
ssS'4726'
p743
(dp744
g3
S'qld'
p745
sg5
S'aramac'
p746
ssS'4735'
p747
(dp748
g3
S'qld'
p749
sg5
S'diamantina lakes'
p750
ssS'6535'
p751
(dp752
g3
S'wa'
p753
sg5
S'alma'
p754
ssS'4738'
p755
(dp756
g3
S'qld'
p757
sg5
S'ilbilbie'
p758
ssS'4739'
p759
(dp760
g3
S'qld'
p761
sg5
S'carmila'
p762
ssS'6147'
p763
(dp764
g3
S'wa'
p765
sg5
S'langford'
p766
ssS'6149'
p767
(dp768
g3
S'wa'
p769
sg5
S'bull creek'
p770
ssS'6148'
p771
(dp772
g3
S'wa'
p773
sg5
S'ferndale'
p774
ssS'2309'
p775
(dp776
g3
S'nsw'
p777
sg5
S'dangar'
p778
ssS'2308'
p779
(dp780
g3
S'nsw'
p781
sg5
S'callaghan'
p782
ssS'6926'
p783
(dp784
g3
S'wa'
p785
sg5
S'kalamunda'
p786
ssS'4728'
p787
(dp788
g3
S'qld'
p789
sg5
S'dunrobin'
p790
ssS'4725'
p791
(dp792
g3
S'qld'
p793
sg5
S'barcaldine'
p794
ssS'2300'
p795
(dp796
g3
S'nsw'
p797
sg5
S'bar beach'
p798
ssS'2303'
p799
(dp800
g3
S'nsw'
p801
sg5
S'hamilton'
p802
ssS'2302'
p803
(dp804
g3
S'nsw'
p805
sg5
S'newcastle west'
p806
ssS'2305'
p807
(dp808
g3
S'nsw'
p809
sg5
S'kotara east'
p810
ssS'2304'
p811
(dp812
g3
S'nsw'
p813
sg5
S'kooragang'
p814
ssS'2307'
p815
(dp816
g3
S'nsw'
p817
sg5
S'shortland'
p818
ssS'2306'
p819
(dp820
g3
S'nsw'
p821
sg5
S'windale'
p822
ssS'3749'
p823
(dp824
g3
S'vic'
p825
sg5
S'bruarong'
p826
ssS'3746'
p827
(dp828
g3
S'vic'
p829
sg5
S'eldorado'
p830
ssS'3747'
p831
(dp832
g3
S'vic'
p833
sg5
S'beechworth'
p834
ssS'3744'
p835
(dp836
g3
S'vic'
p837
sg5
S'wandiligong'
p838
ssS'6355'
p839
(dp840
g3
S'wa'
p841
sg5
S'dunn rock'
p842
ssS'3740'
p843
(dp844
g3
S'vic'
p845
sg5
S'buckland'
p846
ssS'3741'
p847
(dp848
g3
S'vic'
p849
sg5
S'bright'
p850
ssS'4620'
p851
(dp852
g3
S'qld'
p853
sg5
S'aramara'
p854
ssS'4621'
p855
(dp856
g3
S'qld'
p857
sg5
S'biggenden'
p858
ssS'4625'
p859
(dp860
g3
S'qld'
p861
sg5
S'aranbanga'
p862
ssS'4626'
p863
(dp864
g3
S'qld'
p865
sg5
S'beeron'
p866
ssS'4627'
p867
(dp868
g3
S'qld'
p869
sg5
S'abercorn'
p870
ssS'2278'
p871
(dp872
g3
S'nsw'
p873
sg5
S'barnsley'
p874
ssS'2455'
p875
(dp876
g3
S'nsw'
p877
sg5
S'newry'
p878
ssS'2454'
p879
(dp880
g3
S'nsw'
p881
sg5
S'bellingen'
p882
ssS'2456'
p883
(dp884
g3
S'nsw'
p885
sg5
S'arrawarra'
p886
ssS'2450'
p887
(dp888
g3
S'nsw'
p889
sg5
S'boambee'
p890
ssS'2453'
p891
(dp892
g3
S'nsw'
p893
sg5
S'billys creek'
p894
ssS'2452'
p895
(dp896
g3
S'nsw'
p897
sg5
S'boambee east'
p898
ssS'7850'
p899
(dp900
g3
S'tas'
p901
sg5
S'hobart'
p902
ssS'6985'
p903
(dp904
g3
S'wa'
p905
sg5
S'cloverdale'
p906
ssS'3699'
p907
(dp908
g3
S'vic'
p909
sg5
S'bogong'
p910
ssS'2052'
p911
(dp912
g3
S'nsw'
p913
sg5
S'unsw sydney'
p914
ssS'2055'
p915
(dp916
g3
S'nsw'
p917
sg5
S'north sydney'
p918
ssS'2057'
p919
(dp920
g3
S'nsw'
p921
sg5
S'chatswood'
p922
ssS'4829'
p923
(dp924
g3
S'qld'
p925
sg5
S'amaroo'
p926
ssS'3690'
p927
(dp928
g3
S'vic'
p929
sg5
S'west wodonga'
p930
ssS'3691'
p931
(dp932
g3
S'vic'
p933
sg5
S'allans flat'
p934
ssS'4824'
p935
(dp936
g3
S'qld'
p937
sg5
S'cloncurry'
p938
ssS'4825'
p939
(dp940
g3
S'qld'
p941
sg5
S'alexandria'
p942
ssS'3694'
p943
(dp944
g3
S'vic'
p945
sg5
S'bandiana'
p946
ssS'3695'
p947
(dp948
g3
S'vic'
p949
sg5
S'charleroi'
p950
ssS'4820'
p951
(dp952
g3
S'qld'
p953
sg5
S'alabama hill'
p954
ssS'3697'
p955
(dp956
g3
S'vic'
p957
sg5
S'tawonga'
p958
ssS'6369'
p959
(dp960
g3
S'wa'
p961
sg5
S'mount walker'
p962
ssS'6368'
p963
(dp964
g3
S'wa'
p965
sg5
S'south kumminin'
p966
ssS'6363'
p967
(dp968
g3
S'wa'
p969
sg5
S'dudinin'
p970
ssS'6361'
p971
(dp972
g3
S'wa'
p973
sg5
S'harrismith'
p974
ssS'6367'
p975
(dp976
g3
S'wa'
p977
sg5
S'kondinin'
p978
ssS'6365'
p979
(dp980
g3
S'wa'
p981
sg5
S'jilakin'
p982
ssS'3527'
p983
(dp984
g3
S'vic'
p985
sg5
S'bunguluke'
p986
ssS'3595'
p987
(dp988
g3
S'vic'
p989
sg5
S'nyah west'
p990
ssS'3525'
p991
(dp992
g3
S'vic'
p993
sg5
S'barrakee'
p994
ssS'3522'
p995
(dp996
g3
S'vic'
p997
sg5
S'emu flat'
p998
ssS'3523'
p999
(dp1000
g3
S'vic'
p1001
sg5
S'argyle'
p1002
ssS'3520'
p1003
(dp1004
g3
S'vic'
p1005
sg5
S'kinypanial'
p1006
ssS'3521'
p1007
(dp1008
g3
S'vic'
p1009
sg5
S'pyalong'
p1010
ssS'3529'
p1011
(dp1012
g3
S'vic'
p1013
sg5
S'kalpienung'
p1014
ssS'2768'
p1015
(dp1016
g3
S'nsw'
p1017
sg5
S'glenwood'
p1018
ssS'7210'
p1019
(dp1020
g3
S'tas'
p1021
sg5
S'campbell town'
p1022
ssS'7211'
p1023
(dp1024
g3
S'tas'
p1025
sg5
S'cleveland'
p1026
ssS'7212'
p1027
(dp1028
g3
S'tas'
p1029
sg5
S'ben lomond'
p1030
ssS'7213'
p1031
(dp1032
g3
S'tas'
p1033
sg5
S'avoca'
p1034
ssS'7214'
p1035
(dp1036
g3
S'tas'
p1037
sg5
S'fingal'
p1038
ssS'7215'
p1039
(dp1040
g3
S'tas'
p1041
sg5
S'beaumaris'
p1042
ssS'7216'
p1043
(dp1044
g3
S'tas'
p1045
sg5
S'akaroa'
p1046
ssS'6215'
p1047
(dp1048
g3
S'wa'
p1049
sg5
S'hamel'
p1050
ssS'6214'
p1051
(dp1052
g3
S'wa'
p1053
sg5
S'birchmont'
p1054
ssS'6213'
p1055
(dp1056
g3
S'wa'
p1057
sg5
S'banksiadale'
p1058
ssS'6211'
p1059
(dp1060
g3
S'wa'
p1061
sg5
S'bouvard'
p1062
ssS'6210'
p1063
(dp1064
g3
S'wa'
p1065
sg5
S'coodanup'
p1066
ssS'1226'
p1067
(dp1068
g3
S'nsw'
p1069
sg5
S'queen victoria building'
p1070
ssS'4650'
p1071
(dp1072
g3
S'qld'
p1073
sg5
S'aldershot'
p1074
ssS'6383'
p1075
(dp1076
g3
S'wa'
p1077
sg5
S'badjaling'
p1078
ssS'6817'
p1079
(dp1080
g3
S'wa'
p1081
sg5
S'perth'
p1082
ssS'4556'
p1083
(dp1084
g3
S'qld'
p1085
sg5
S'buderim'
p1086
ssS'4557'
p1087
(dp1088
g3
S'qld'
p1089
sg5
S'mooloolaba'
p1090
ssS'4554'
p1091
(dp1092
g3
S'qld'
p1093
sg5
S'eudlo'
p1094
ssS'3232'
p1095
(dp1096
g3
S'vic'
p1097
sg5
S'lorne'
p1098
ssS'3233'
p1099
(dp1100
g3
S'vic'
p1101
sg5
S'apollo bay'
p1102
ssS'3230'
p1103
(dp1104
g3
S'vic'
p1105
sg5
S'anglesea'
p1106
ssS'3231'
p1107
(dp1108
g3
S'vic'
p1109
sg5
S'aireys inlet'
p1110
ssS'3236'
p1111
(dp1112
g3
S'vic'
p1113
sg5
S'forrest'
p1114
ssS'3237'
p1115
(dp1116
g3
S'vic'
p1117
sg5
S'aire valley'
p1118
ssS'7322'
p1119
(dp1120
g3
S'tas'
p1121
sg5
S'somerset'
p1122
ssS'3235'
p1123
(dp1124
g3
S'vic'
p1125
sg5
S'benwerrin'
p1126
ssS'4552'
p1127
(dp1128
g3
S'qld'
p1129
sg5
S'bald knob'
p1130
ssS'3238'
p1131
(dp1132
g3
S'vic'
p1133
sg5
S'glenaire'
p1134
ssS'3239'
p1135
(dp1136
g3
S'vic'
p1137
sg5
S'carlisle river'
p1138
ssS'4553'
p1139
(dp1140
g3
S'qld'
p1141
sg5
S'diamond valley'
p1142
ssS'4551'
p1143
(dp1144
g3
S'qld'
p1145
sg5
S'aroona'
p1146
ssS'2873'
p1147
(dp1148
g3
S'nsw'
p1149
sg5
S'albert'
p1150
ssS'2871'
p1151
(dp1152
g3
S'nsw'
p1153
sg5
S'bandon'
p1154
ssS'2870'
p1155
(dp1156
g3
S'nsw'
p1157
sg5
S'alectown'
p1158
ssS'2877'
p1159
(dp1160
g3
S'nsw'
p1161
sg5
S'condobolin'
p1162
ssS'2876'
p1163
(dp1164
g3
S'nsw'
p1165
sg5
S'bogan gate'
p1166
ssS'2875'
p1167
(dp1168
g3
S'nsw'
p1169
sg5
S'bruie plains'
p1170
ssS'2874'
p1171
(dp1172
g3
S'nsw'
p1173
sg5
S'tullamore'
p1174
ssS'2879'
p1175
(dp1176
g3
S'nsw'
p1177
sg5
S'copi hollow'
p1178
ssS'2878'
p1179
(dp1180
g3
S'nsw'
p1181
sg5
S'beilpajah'
p1182
ssS'3355'
p1183
(dp1184
g3
S'vic'
p1185
sg5
S'lake gardens'
p1186
ssS'3354'
p1187
(dp1188
g3
S'vic'
p1189
sg5
S'bakery hill'
p1190
ssS'3357'
p1191
(dp1192
g3
S'vic'
p1193
sg5
S'buninyong'
p1194
ssS'3356'
p1195
(dp1196
g3
S'vic'
p1197
sg5
S'bonshaw'
p1198
ssS'3351'
p1199
(dp1200
g3
S'vic'
p1201
sg5
S'berringa'
p1202
ssS'3350'
p1203
(dp1204
g3
S'vic'
p1205
sg5
S'alfredton'
p1206
ssS'3353'
p1207
(dp1208
g3
S'vic'
p1209
sg5
S'ballarat'
p1210
ssS'3352'
p1211
(dp1212
g3
S'vic'
p1213
sg5
S'addington'
p1214
ssS'1360'
p1215
(dp1216
g3
S'nsw'
p1217
sg5
S'double bay'
p1218
ssS'5440'
p1219
(dp1220
g3
S'sa'
p1221
sg5
S'cockburn'
p1222
ssS'1765'
p1223
(dp1224
g3
S'nsw'
p1225
sg5
S'castle hill'
p1226
ssS'1142'
p1227
(dp1228
g3
S'nsw'
p1229
sg5
S'sydney'
p1230
ssS'1143'
p1231
(dp1232
g3
S'nsw'
p1233
sg5
S'sydney'
p1234
ssS'1140'
p1235
(dp1236
g3
S'nsw'
p1237
sg5
S'sydney'
p1238
ssS'1141'
p1239
(dp1240
g3
S'nsw'
p1241
sg5
S'sydney'
p1242
ssS'1146'
p1243
(dp1244
g3
S'nsw'
p1245
sg5
S'sydney'
p1246
ssS'1147'
p1247
(dp1248
g3
S'nsw'
p1249
sg5
S'sydney'
p1250
ssS'1144'
p1251
(dp1252
g3
S'nsw'
p1253
sg5
S'sydney'
p1254
ssS'1145'
p1255
(dp1256
g3
S'nsw'
p1257
sg5
S'sydney'
p1258
ssS'6969'
p1259
(dp1260
g3
S'wa'
p1261
sg5
S'rockingham beach'
p1262
ssS'6968'
p1263
(dp1264
g3
S'wa'
p1265
sg5
S'rockingham'
p1266
ssS'1148'
p1267
(dp1268
g3
S'nsw'
p1269
sg5
S'sydney'
p1270
ssS'1149'
p1271
(dp1272
g3
S'nsw'
p1273
sg5
S'sydney'
p1274
ssS'8622'
p1275
(dp1276
g3
S'vic'
p1277
sg5
S'hawthorn'
p1278
ssS'6358'
p1279
(dp1280
g3
S'wa'
p1281
sg5
S'karlgarin'
p1282
ssS'5502'
p1283
(dp1284
g3
S'sa'
p1285
sg5
S'fischer'
p1286
ssS'5501'
p1287
(dp1288
g3
S'sa'
p1289
sg5
S'avon'
p1290
ssS'7190'
p1291
(dp1292
g3
S'tas'
p1293
sg5
S'apslawn'
p1294
ssS'2648'
p1295
(dp1296
g3
S'nsw'
p1297
sg5
S'boeill creek'
p1298
ssS'8538'
p1299
(dp1300
g3
S'vic'
p1301
sg5
S'brunswick'
p1302
ssS'3049'
p1303
(dp1304
g3
S'vic'
p1305
sg5
S'attwood'
p1306
ssS'2649'
p1307
(dp1308
g3
S'nsw'
p1309
sg5
S'laurel hill'
p1310
ssS'6569'
p1311
(dp1312
g3
S'wa'
p1313
sg5
S'calingiri'
p1314
ssS'6568'
p1315
(dp1316
g3
S'wa'
p1317
sg5
S'bolgart'
p1318
ssS'3048'
p1319
(dp1320
g3
S'vic'
p1321
sg5
S'coolaroo'
p1322
ssS'6564'
p1323
(dp1324
g3
S'wa'
p1325
sg5
S'clackline'
p1326
ssS'6567'
p1327
(dp1328
g3
S'wa'
p1329
sg5
S'dewars pool'
p1330
ssS'6566'
p1331
(dp1332
g3
S'wa'
p1333
sg5
S'bejoording'
p1334
ssS'6560'
p1335
(dp1336
g3
S'wa'
p1337
sg5
S'wundowie'
p1338
ssS'6562'
p1339
(dp1340
g3
S'wa'
p1341
sg5
S'bakers hill'
p1342
ssS'5472'
p1343
(dp1344
g3
S'sa'
p1345
sg5
S'georgetown'
p1346
ssS'5473'
p1347
(dp1348
g3
S'sa'
p1349
sg5
S'gladstone'
p1350
ssS'3825'
p1351
(dp1352
g3
S'vic'
p1353
sg5
S'aberfeldy'
p1354
ssS'3824'
p1355
(dp1356
g3
S'vic'
p1357
sg5
S'childers'
p1358
ssS'3823'
p1359
(dp1360
g3
S'vic'
p1361
sg5
S'allambee'
p1362
ssS'3822'
p1363
(dp1364
g3
S'vic'
p1365
sg5
S'cloverlea'
p1366
ssS'3821'
p1367
(dp1368
g3
S'vic'
p1369
sg5
S'brandy creek'
p1370
ssS'3820'
p1371
(dp1372
g3
S'vic'
p1373
sg5
S'bona vista'
p1374
ssS'2769'
p1375
(dp1376
g3
S'nsw'
p1377
sg5
S'the ponds'
p1378
ssS'3583'
p1379
(dp1380
g3
S'vic'
p1381
sg5
S'tresco'
p1382
ssS'3584'
p1383
(dp1384
g3
S'vic'
p1385
sg5
S'lake boga'
p1386
ssS'3043'
p1387
(dp1388
g3
S'vic'
p1389
sg5
S'gladstone park'
p1390
ssS'3585'
p1391
(dp1392
g3
S'vic'
p1393
sg5
S'castle donnington'
p1394
ssS'4280'
p1395
(dp1396
g3
S'qld'
p1397
sg5
S'jimboomba'
p1398
ssS'3586'
p1399
(dp1400
g3
S'vic'
p1401
sg5
S'bulga'
p1402
ssS'4285'
p1403
(dp1404
g3
S'qld'
p1405
sg5
S'allenview'
p1406
ssS'6872'
p1407
(dp1408
g3
S'wa'
p1409
sg5
S'west perth'
p1410
ssS'2763'
p1411
(dp1412
g3
S'nsw'
p1413
sg5
S'acacia gardens'
p1414
ssS'2762'
p1415
(dp1416
g3
S'nsw'
p1417
sg5
S'schofields'
p1418
ssS'2761'
p1419
(dp1420
g3
S'nsw'
p1421
sg5
S'colebee'
p1422
ssS'2760'
p1423
(dp1424
g3
S'nsw'
p1425
sg5
S'colyton'
p1426
ssS'6176'
p1427
(dp1428
g3
S'wa'
p1429
sg5
S'karnup'
p1430
ssS'1771'
p1431
(dp1432
g3
S'nsw'
p1433
sg5
S'pennant hills'
p1434
ssS'6174'
p1435
(dp1436
g3
S'wa'
p1437
sg5
S'golden bay'
p1438
ssS'6175'
p1439
(dp1440
g3
S'wa'
p1441
sg5
S'singleton'
p1442
ssS'6172'
p1443
(dp1444
g3
S'wa'
p1445
sg5
S'port kennedy'
p1446
ssS'6173'
p1447
(dp1448
g3
S'wa'
p1449
sg5
S'secret harbour'
p1450
ssS'6170'
p1451
(dp1452
g3
S'wa'
p1453
sg5
S'leda'
p1454
ssS'6171'
p1455
(dp1456
g3
S'wa'
p1457
sg5
S'baldivis'
p1458
ssS'2065'
p1459
(dp1460
g3
S'nsw'
p1461
sg5
S'crows nest'
p1462
ssS'4750'
p1463
(dp1464
g3
S'qld'
p1465
sg5
S'bucasia'
p1466
ssS'4751'
p1467
(dp1468
g3
S'qld'
p1469
sg5
S'greenmount'
p1470
ssS'4753'
p1471
(dp1472
g3
S'qld'
p1473
sg5
S'devereux creek'
p1474
ssS'4754'
p1475
(dp1476
g3
S'qld'
p1477
sg5
S'benholme'
p1478
ssS'4756'
p1479
(dp1480
g3
S'qld'
p1481
sg5
S'finch hatton'
p1482
ssS'4757'
p1483
(dp1484
g3
S'qld'
p1485
sg5
S'broken river'
p1486
ssS'6330'
p1487
(dp1488
g3
S'wa'
p1489
sg5
S'albany'
p1490
ssS'3759'
p1491
(dp1492
g3
S'vic'
p1493
sg5
S'panton hill'
p1494
ssS'3758'
p1495
(dp1496
g3
S'vic'
p1497
sg5
S'heathcote junction'
p1498
ssS'3751'
p1499
(dp1500
g3
S'vic'
p1501
sg5
S'woodstock'
p1502
ssS'3750'
p1503
(dp1504
g3
S'vic'
p1505
sg5
S'wollert'
p1506
ssS'3753'
p1507
(dp1508
g3
S'vic'
p1509
sg5
S'beveridge'
p1510
ssS'3752'
p1511
(dp1512
g3
S'vic'
p1513
sg5
S'morang south'
p1514
ssS'3755'
p1515
(dp1516
g3
S'vic'
p1517
sg5
S'yan yean'
p1518
ssS'3754'
p1519
(dp1520
g3
S'vic'
p1521
sg5
S'doreen'
p1522
ssS'3757'
p1523
(dp1524
g3
S'vic'
p1525
sg5
S'bruces creek'
p1526
ssS'3756'
p1527
(dp1528
g3
S'vic'
p1529
sg5
S'chintin'
p1530
ssS'2190'
p1531
(dp1532
g3
S'nsw'
p1533
sg5
S'chullora'
p1534
ssS'2191'
p1535
(dp1536
g3
S'nsw'
p1537
sg5
S'belfield'
p1538
ssS'2192'
p1539
(dp1540
g3
S'nsw'
p1541
sg5
S'belmore'
p1542
ssS'2193'
p1543
(dp1544
g3
S'nsw'
p1545
sg5
S'ashbury'
p1546
ssS'2194'
p1547
(dp1548
g3
S'nsw'
p1549
sg5
S'campsie'
p1550
ssS'2195'
p1551
(dp1552
g3
S'nsw'
p1553
sg5
S'lakemba'
p1554
ssS'2196'
p1555
(dp1556
g3
S'nsw'
p1557
sg5
S'punchbowl'
p1558
ssS'2197'
p1559
(dp1560
g3
S'nsw'
p1561
sg5
S'bass hill'
p1562
ssS'2198'
p1563
(dp1564
g3
S'nsw'
p1565
sg5
S'georges hall'
p1566
ssS'2199'
p1567
(dp1568
g3
S'nsw'
p1569
sg5
S'yagoona'
p1570
ssS'2200'
p1571
(dp1572
g3
S'nsw'
p1573
sg5
S'bankstown'
p1574
ssS'2203'
p1575
(dp1576
g3
S'nsw'
p1577
sg5
S'dulwich hill'
p1578
ssS'2204'
p1579
(dp1580
g3
S'nsw'
p1581
sg5
S'marrickville'
p1582
ssS'2205'
p1583
(dp1584
g3
S'nsw'
p1585
sg5
S'arncliffe'
p1586
ssS'2206'
p1587
(dp1588
g3
S'nsw'
p1589
sg5
S'clemton park'
p1590
ssS'2207'
p1591
(dp1592
g3
S'nsw'
p1593
sg5
S'bardwell park'
p1594
ssS'2208'
p1595
(dp1596
g3
S'nsw'
p1597
sg5
S'kingsgrove'
p1598
ssS'2209'
p1599
(dp1600
g3
S'nsw'
p1601
sg5
S'beverly hills'
p1602
ssS'2640'
p1603
(dp1604
g3
S'nsw'
p1605
sg5
S'albury'
p1606
ssS'2428'
p1607
(dp1608
g3
S'nsw'
p1609
sg5
S'blueys beach'
p1610
ssS'2429'
p1611
(dp1612
g3
S'nsw'
p1613
sg5
S'bobin'
p1614
ssS'4812'
p1615
(dp1616
g3
S'qld'
p1617
sg5
S'currajong'
p1618
ssS'2420'
p1619
(dp1620
g3
S'nsw'
p1621
sg5
S'alison'
p1622
ssS'2421'
p1623
(dp1624
g3
S'nsw'
p1625
sg5
S'fishers hill'
p1626
ssS'2422'
p1627
(dp1628
g3
S'nsw'
p1629
sg5
S'back creek'
p1630
ssS'2423'
p1631
(dp1632
g3
S'nsw'
p1633
sg5
S'bombah point'
p1634
ssS'2424'
p1635
(dp1636
g3
S'nsw'
p1637
sg5
S'caffreys flat'
p1638
ssS'2425'
p1639
(dp1640
g3
S'nsw'
p1641
sg5
S'allworth'
p1642
ssS'2426'
p1643
(dp1644
g3
S'nsw'
p1645
sg5
S'coopernook'
p1646
ssS'2427'
p1647
(dp1648
g3
S'nsw'
p1649
sg5
S'crowdy head'
p1650
ssS'2641'
p1651
(dp1652
g3
S'nsw'
p1653
sg5
S'hamilton valley'
p1654
ssS'2791'
p1655
(dp1656
g3
S'nsw'
p1657
sg5
S'carcoar'
p1658
ssS'7845'
p1659
(dp1660
g3
S'tas'
p1661
sg5
S'hobart'
p1662
ssS'4817'
p1663
(dp1664
g3
S'qld'
p1665
sg5
S'alice river'
p1666
ssS'4816'
p1667
(dp1668
g3
S'qld'
p1669
sg5
S'alligator creek'
p1670
ssS'6356'
p1671
(dp1672
g3
S'wa'
p1673
sg5
S'lake king'
p1674
ssS'6357'
p1675
(dp1676
g3
S'wa'
p1677
sg5
S'pingaring'
p1678
ssS'3689'
p1679
(dp1680
g3
S'vic'
p1681
sg5
S'wodonga'
p1682
ssS'3688'
p1683
(dp1684
g3
S'vic'
p1685
sg5
S'barnawartha'
p1686
ssS'6352'
p1687
(dp1688
g3
S'wa'
p1689
sg5
S'kukerin'
p1690
ssS'4815'
p1691
(dp1692
g3
S'qld'
p1693
sg5
S'condon'
p1694
ssS'6350'
p1695
(dp1696
g3
S'wa'
p1697
sg5
S'dumbleyung'
p1698
ssS'6351'
p1699
(dp1700
g3
S'wa'
p1701
sg5
S'moulyinning'
p1702
ssS'3683'
p1703
(dp1704
g3
S'vic'
p1705
sg5
S'chiltern'
p1706
ssS'3682'
p1707
(dp1708
g3
S'vic'
p1709
sg5
S'boralma'
p1710
ssS'4814'
p1711
(dp1712
g3
S'qld'
p1713
sg5
S'aitkenvale'
p1714
ssS'3687'
p1715
(dp1716
g3
S'vic'
p1717
sg5
S'wahgunyah'
p1718
ssS'3685'
p1719
(dp1720
g3
S'vic'
p1721
sg5
S'boorhaman north'
p1722
ssS'4520'
p1723
(dp1724
g3
S'qld'
p1725
sg5
S'armstrong creek'
p1726
ssS'2518'
p1727
(dp1728
g3
S'nsw'
p1729
sg5
S'bellambi'
p1730
ssS'2519'
p1731
(dp1732
g3
S'nsw'
p1733
sg5
S'balgownie'
p1734
ssS'2515'
p1735
(dp1736
g3
S'nsw'
p1737
sg5
S'austinmer'
p1738
ssS'2516'
p1739
(dp1740
g3
S'nsw'
p1741
sg5
S'bulli'
p1742
ssS'2517'
p1743
(dp1744
g3
S'nsw'
p1745
sg5
S'russell vale'
p1746
ssS'2734'
p1747
(dp1748
g3
S'nsw'
p1749
sg5
S'cunninyeuk'
p1750
ssS'2735'
p1751
(dp1752
g3
S'nsw'
p1753
sg5
S'murray downs'
p1754
ssS'2736'
p1755
(dp1756
g3
S'nsw'
p1757
sg5
S'goodnight'
p1758
ssS'2737'
p1759
(dp1760
g3
S'nsw'
p1761
sg5
S'benanee'
p1762
ssS'2730'
p1763
(dp1764
g3
S'nsw'
p1765
sg5
S'bago'
p1766
ssS'2731'
p1767
(dp1768
g3
S'nsw'
p1769
sg5
S'bunnaloo'
p1770
ssS'2732'
p1771
(dp1772
g3
S'nsw'
p1773
sg5
S'barham'
p1774
ssS'2733'
p1775
(dp1776
g3
S'nsw'
p1777
sg5
S'dhuragoon'
p1778
ssS'2738'
p1779
(dp1780
g3
S'nsw'
p1781
sg5
S'gol gol'
p1782
ssS'2739'
p1783
(dp1784
g3
S'nsw'
p1785
sg5
S'buronga'
p1786
ssS'5290'
p1787
(dp1788
g3
S'sa'
p1789
sg5
S'mount gambier'
p1790
ssS'5291'
p1791
(dp1792
g3
S'sa'
p1793
sg5
S'allendale east'
p1794
ssS'3531'
p1795
(dp1796
g3
S'vic'
p1797
sg5
S'berriwillock'
p1798
ssS'3530'
p1799
(dp1800
g3
S'vic'
p1801
sg5
S'culgoa'
p1802
ssS'3533'
p1803
(dp1804
g3
S'vic'
p1805
sg5
S'bimbourie'
p1806
ssS'3537'
p1807
(dp1808
g3
S'vic'
p1809
sg5
S'barraport'
p1810
ssS'2779'
p1811
(dp1812
g3
S'nsw'
p1813
sg5
S'hazelbrook'
p1814
ssS'5050'
p1815
(dp1816
g3
S'sa'
p1817
sg5
S'bellevue heights'
p1818
ssS'5051'
p1819
(dp1820
g3
S'sa'
p1821
sg5
S'blackwood'
p1822
ssS'5052'
p1823
(dp1824
g3
S'sa'
p1825
sg5
S'belair'
p1826
ssS'7209'
p1827
(dp1828
g3
S'tas'
p1829
sg5
S'tooms lake'
p1830
ssS'1811'
p1831
(dp1832
g3
S'nsw'
p1833
sg5
S'silverwater'
p1834
ssS'2585'
p1835
(dp1836
g3
S'nsw'
p1837
sg5
S'galong'
p1838
ssS'1819'
p1839
(dp1840
g3
S'nsw'
p1841
sg5
S'strathfield'
p1842
ssS'6223'
p1843
(dp1844
g3
S'wa'
p1845
sg5
S'benger'
p1846
ssS'6220'
p1847
(dp1848
g3
S'wa'
p1849
sg5
S'cookernup'
p1850
ssS'6221'
p1851
(dp1852
g3
S'wa'
p1853
sg5
S'mornington'
p1854
ssS'6226'
p1855
(dp1856
g3
S'wa'
p1857
sg5
S'roelands'
p1858
ssS'6227'
p1859
(dp1860
g3
S'wa'
p1861
sg5
S'burekup'
p1862
ssS'6224'
p1863
(dp1864
g3
S'wa'
p1865
sg5
S'beela'
p1866
ssS'6225'
p1867
(dp1868
g3
S'wa'
p1869
sg5
S'allanson'
p1870
ssS'6228'
p1871
(dp1872
g3
S'wa'
p1873
sg5
S'waterloo'
p1874
ssS'6229'
p1875
(dp1876
g3
S'wa'
p1877
sg5
S'picton'
p1878
ssS'2168'
p1879
(dp1880
g3
S'nsw'
p1881
sg5
S'ashcroft'
p1882
ssS'6990'
p1883
(dp1884
g3
S'wa'
p1885
sg5
S'gosnells'
p1886
ssS'2795'
p1887
(dp1888
g3
S'nsw'
p1889
sg5
S'abercrombie river'
p1890
ssS'6992'
p1891
(dp1892
g3
S'wa'
p1893
sg5
S'armadale'
p1894
ssS'6373'
p1895
(dp1896
g3
S'wa'
p1897
sg5
S'bullaring'
p1898
ssS'3228'
p1899
(dp1900
g3
S'vic'
p1901
sg5
S'bellbrae'
p1902
ssS'7331'
p1903
(dp1904
g3
S'tas'
p1905
sg5
S'stanley'
p1906
ssS'7330'
p1907
(dp1908
g3
S'tas'
p1909
sg5
S'alcomie'
p1910
ssS'3225'
p1911
(dp1912
g3
S'vic'
p1913
sg5
S'point lonsdale'
p1914
ssS'3224'
p1915
(dp1916
g3
S'vic'
p1917
sg5
S'leopold'
p1918
ssS'3227'
p1919
(dp1920
g3
S'vic'
p1921
sg5
S'barwon heads'
p1922
ssS'3226'
p1923
(dp1924
g3
S'vic'
p1925
sg5
S'ocean grove'
p1926
ssS'3221'
p1927
(dp1928
g3
S'vic'
p1929
sg5
S'anakie'
p1930
ssS'3220'
p1931
(dp1932
g3
S'vic'
p1933
sg5
S'bareena'
p1934
ssS'3223'
p1935
(dp1936
g3
S'vic'
p1937
sg5
S'indented head'
p1938
ssS'3222'
p1939
(dp1940
g3
S'vic'
p1941
sg5
S'clifton springs'
p1942
ssS'4884'
p1943
(dp1944
g3
S'qld'
p1945
sg5
S'gadgarra'
p1946
ssS'801'
p1947
(dp1948
g3
S'nt'
p1949
sg5
S'darwin'
p1950
ssS'800'
p1951
(dp1952
g3
S'nt'
p1953
sg5
S'darwin'
p1954
ssS'804'
p1955
(dp1956
g3
S'nt'
p1957
sg5
S'parap'
p1958
ssS'2848'
p1959
(dp1960
g3
S'nsw'
p1961
sg5
S'brogans creek'
p1962
ssS'2849'
p1963
(dp1964
g3
S'nsw'
p1965
sg5
S'bogee'
p1966
ssS'2846'
p1967
(dp1968
g3
S'nsw'
p1969
sg5
S'capertee'
p1970
ssS'2847'
p1971
(dp1972
g3
S'nsw'
p1973
sg5
S'portland'
p1974
ssS'2844'
p1975
(dp1976
g3
S'nsw'
p1977
sg5
S'birriwa'
p1978
ssS'2845'
p1979
(dp1980
g3
S'nsw'
p1981
sg5
S'wallerawang'
p1982
ssS'2842'
p1983
(dp1984
g3
S'nsw'
p1985
sg5
S'mendooran'
p1986
ssS'2843'
p1987
(dp1988
g3
S'nsw'
p1989
sg5
S'coolah'
p1990
ssS'2840'
p1991
(dp1992
g3
S'nsw'
p1993
sg5
S'barringun'
p1994
ssS'3321'
p1995
(dp1996
g3
S'vic'
p1997
sg5
S'hesse'
p1998
ssS'3322'
p1999
(dp2000
g3
S'vic'
p2001
sg5
S'cressy'
p2002
ssS'3323'
p2003
(dp2004
g3
S'vic'
p2005
sg5
S'berrybank'
p2006
ssS'3324'
p2007
(dp2008
g3
S'vic'
p2009
sg5
S'lismore'
p2010
ssS'3325'
p2011
(dp2012
g3
S'vic'
p2013
sg5
S'derrinallum'
p2014
ssS'5470'
p2015
(dp2016
g3
S'sa'
p2017
sg5
S'yacka'
p2018
ssS'5471'
p2019
(dp2020
g3
S'sa'
p2021
sg5
S'gulnare'
p2022
ssS'3328'
p2023
(dp2024
g3
S'vic'
p2025
sg5
S'teesdale'
p2026
ssS'3329'
p2027
(dp2028
g3
S'vic'
p2029
sg5
S'barunah park'
p2030
ssS'6001'
p2031
(dp2032
g3
S'wa'
p2033
sg5
S'perth'
p2034
ssS'5275'
p2035
(dp2036
g3
S'sa'
p2037
sg5
S'blackford'
p2038
ssS'5276'
p2039
(dp2040
g3
S'sa'
p2041
sg5
S'bray'
p2042
ssS'5277'
p2043
(dp2044
g3
S'sa'
p2045
sg5
S'comaum'
p2046
ssS'5270'
p2047
(dp2048
g3
S'sa'
p2049
sg5
S'buckingham'
p2050
ssS'5271'
p2051
(dp2052
g3
S'sa'
p2053
sg5
S'bool lagoon'
p2054
ssS'5272'
p2055
(dp2056
g3
S'sa'
p2057
sg5
S'coles'
p2058
ssS'5273'
p2059
(dp2060
g3
S'sa'
p2061
sg5
S'avenue range'
p2062
ssS'7052'
p2063
(dp2064
g3
S'tas'
p2065
sg5
S'blackmans bay'
p2066
ssS'7053'
p2067
(dp2068
g3
S'tas'
p2069
sg5
S'bonnet hill'
p2070
ssS'7050'
p2071
(dp2072
g3
S'tas'
p2073
sg5
S'albion heights'
p2074
ssS'7051'
p2075
(dp2076
g3
S'tas'
p2077
sg5
S'kingston'
p2078
ssS'5278'
p2079
(dp2080
g3
S'sa'
p2081
sg5
S'kalangadoo'
p2082
ssS'5279'
p2083
(dp2084
g3
S'sa'
p2085
sg5
S'koorine'
p2086
ssS'7054'
p2087
(dp2088
g3
S'tas'
p2089
sg5
S'barretta'
p2090
ssS'7055'
p2091
(dp2092
g3
S'tas'
p2093
sg5
S'huntingfield'
p2094
ssS'6414'
p2095
(dp2096
g3
S'wa'
p2097
sg5
S'nangeenan'
p2098
ssS'1159'
p2099
(dp2100
g3
S'nsw'
p2101
sg5
S'sydney'
p2102
ssS'1158'
p2103
(dp2104
g3
S'nsw'
p2105
sg5
S'sydney'
p2106
ssS'1155'
p2107
(dp2108
g3
S'nsw'
p2109
sg5
S'sydney'
p2110
ssS'1154'
p2111
(dp2112
g3
S'nsw'
p2113
sg5
S'sydney'
p2114
ssS'1157'
p2115
(dp2116
g3
S'nsw'
p2117
sg5
S'sydney'
p2118
ssS'1156'
p2119
(dp2120
g3
S'nsw'
p2121
sg5
S'sydney'
p2122
ssS'1151'
p2123
(dp2124
g3
S'nsw'
p2125
sg5
S'sydney'
p2126
ssS'1150'
p2127
(dp2128
g3
S'nsw'
p2129
sg5
S'sydney'
p2130
ssS'1153'
p2131
(dp2132
g3
S'nsw'
p2133
sg5
S'sydney'
p2134
ssS'1152'
p2135
(dp2136
g3
S'nsw'
p2137
sg5
S'sydney'
p2138
ssS'5510'
p2139
(dp2140
g3
S'sa'
p2141
sg5
S'lochiel'
p2142
ssS'3038'
p2143
(dp2144
g3
S'vic'
p2145
sg5
S'keilor downs'
p2146
ssS'3039'
p2147
(dp2148
g3
S'vic'
p2149
sg5
S'moonee ponds'
p2150
ssS'3034'
p2151
(dp2152
g3
S'vic'
p2153
sg5
S'avondale heights'
p2154
ssS'3036'
p2155
(dp2156
g3
S'vic'
p2157
sg5
S'keilor'
p2158
ssS'3037'
p2159
(dp2160
g3
S'vic'
p2161
sg5
S'delahey'
p2162
ssS'3030'
p2163
(dp2164
g3
S'vic'
p2165
sg5
S'cocoroc'
p2166
ssS'3031'
p2167
(dp2168
g3
S'vic'
p2169
sg5
S'flemington'
p2170
ssS'3032'
p2171
(dp2172
g3
S'vic'
p2173
sg5
S'ascot vale'
p2174
ssS'3033'
p2175
(dp2176
g3
S'vic'
p2177
sg5
S'keilor east'
p2178
ssS'2804'
p2179
(dp2180
g3
S'nsw'
p2181
sg5
S'billimari'
p2182
ssS'6275'
p2183
(dp2184
g3
S'wa'
p2185
sg5
S'barrabup'
p2186
ssS'6009'
p2187
(dp2188
g3
S'wa'
p2189
sg5
S'broadway nedlands'
p2190
ssS'5605'
p2191
(dp2192
g3
S'sa'
p2193
sg5
S'butler'
p2194
ssS'5137'
p2195
(dp2196
g3
S'sa'
p2197
sg5
S'ashton'
p2198
ssS'5607'
p2199
(dp2200
g3
S'sa'
p2201
sg5
S'boston'
p2202
ssS'5606'
p2203
(dp2204
g3
S'sa'
p2205
sg5
S'kirton point'
p2206
ssS'5601'
p2207
(dp2208
g3
S'sa'
p2209
sg5
S'iron knob'
p2210
ssS'5600'
p2211
(dp2212
g3
S'sa'
p2213
sg5
S'cultana'
p2214
ssS'5603'
p2215
(dp2216
g3
S'sa'
p2217
sg5
S'arno bay'
p2218
ssS'5602'
p2219
(dp2220
g3
S'sa'
p2221
sg5
S'cowell'
p2222
ssS'5609'
p2223
(dp2224
g3
S'sa'
p2225
sg5
S'whyalla jenkins'
p2226
ssS'5608'
p2227
(dp2228
g3
S'sa'
p2229
sg5
S'whyalla norrie'
p2230
ssS'6518'
p2231
(dp2232
g3
S'wa'
p2233
sg5
S'eneabba'
p2234
ssS'6519'
p2235
(dp2236
g3
S'wa'
p2237
sg5
S'arrino'
p2238
ssS'6510'
p2239
(dp2240
g3
S'wa'
p2241
sg5
S'barberton'
p2242
ssS'6511'
p2243
(dp2244
g3
S'wa'
p2245
sg5
S'cervantes'
p2246
ssS'6512'
p2247
(dp2248
g3
S'wa'
p2249
sg5
S'coomberdale'
p2250
ssS'6513'
p2251
(dp2252
g3
S'wa'
p2253
sg5
S'gunyidi'
p2254
ssS'6514'
p2255
(dp2256
g3
S'wa'
p2257
sg5
S'green head'
p2258
ssS'6515'
p2259
(dp2260
g3
S'wa'
p2261
sg5
S'coorow'
p2262
ssS'6516'
p2263
(dp2264
g3
S'wa'
p2265
sg5
S'jurien bay'
p2266
ssS'6517'
p2267
(dp2268
g3
S'wa'
p2269
sg5
S'carnamah'
p2270
ssS'3292'
p2271
(dp2272
g3
S'vic'
p2273
sg5
S'nelson'
p2274
ssS'3812'
p2275
(dp2276
g3
S'vic'
p2277
sg5
S'maryknoll'
p2278
ssS'3813'
p2279
(dp2280
g3
S'vic'
p2281
sg5
S'tynong'
p2282
ssS'3810'
p2283
(dp2284
g3
S'vic'
p2285
sg5
S'pakenham'
p2286
ssS'3816'
p2287
(dp2288
g3
S'vic'
p2289
sg5
S'labertouche'
p2290
ssS'3814'
p2291
(dp2292
g3
S'vic'
p2293
sg5
S'cora lynn'
p2294
ssS'3815'
p2295
(dp2296
g3
S'vic'
p2297
sg5
S'bunyip'
p2298
ssS'3818'
p2299
(dp2300
g3
S'vic'
p2301
sg5
S'athlone'
p2302
ssS'6413'
p2303
(dp2304
g3
S'wa'
p2305
sg5
S'hines hill'
p2306
ssS'6424'
p2307
(dp2308
g3
S'wa'
p2309
sg5
S'bodallin'
p2310
ssS'6425'
p2311
(dp2312
g3
S'wa'
p2313
sg5
S'dulyalbin'
p2314
ssS'6426'
p2315
(dp2316
g3
S'wa'
p2317
sg5
S'corinthia'
p2318
ssS'6427'
p2319
(dp2320
g3
S'wa'
p2321
sg5
S'koolyanobbing'
p2322
ssS'6420'
p2323
(dp2324
g3
S'wa'
p2325
sg5
S'cramphorne'
p2326
ssS'6421'
p2327
(dp2328
g3
S'wa'
p2329
sg5
S'burracoppin'
p2330
ssS'6422'
p2331
(dp2332
g3
S'wa'
p2333
sg5
S'walgoolan'
p2334
ssS'6423'
p2335
(dp2336
g3
S'wa'
p2337
sg5
S'boodarockin'
p2338
ssS'6428'
p2339
(dp2340
g3
S'wa'
p2341
sg5
S'babakin'
p2342
ssS'6429'
p2343
(dp2344
g3
S'wa'
p2345
sg5
S'boorabbin'
p2346
ssS'6412'
p2347
(dp2348
g3
S'wa'
p2349
sg5
S'baandee'
p2350
ssS'7264'
p2351
(dp2352
g3
S'tas'
p2353
sg5
S'boobyalla'
p2354
ssS'3517'
p2355
(dp2356
g3
S'vic'
p2357
sg5
S'bears lagoon'
p2358
ssS'7260'
p2359
(dp2360
g3
S'tas'
p2361
sg5
S'blumont'
p2362
ssS'6169'
p2363
(dp2364
g3
S'wa'
p2365
sg5
S'safety bay'
p2366
ssS'6168'
p2367
(dp2368
g3
S'wa'
p2369
sg5
S'cooloongup'
p2370
ssS'3515'
p2371
(dp2372
g3
S'vic'
p2373
sg5
S'marong'
p2374
ssS'6161'
p2375
(dp2376
g3
S'wa'
p2377
sg5
S'rottnest island'
p2378
ssS'6160'
p2379
(dp2380
g3
S'wa'
p2381
sg5
S'fremantle'
p2382
ssS'6163'
p2383
(dp2384
g3
S'wa'
p2385
sg5
S'bibra lake'
p2386
ssS'6162'
p2387
(dp2388
g3
S'wa'
p2389
sg5
S'beaconsfield'
p2390
ssS'6165'
p2391
(dp2392
g3
S'wa'
p2393
sg5
S'hope valley'
p2394
ssS'6164'
p2395
(dp2396
g3
S'wa'
p2397
sg5
S'atwell'
p2398
ssS'6167'
p2399
(dp2400
g3
S'wa'
p2401
sg5
S'anketell'
p2402
ssS'6166'
p2403
(dp2404
g3
S'wa'
p2405
sg5
S'coogee'
p2406
ssS'4743'
p2407
(dp2408
g3
S'qld'
p2409
sg5
S'glenden'
p2410
ssS'4742'
p2411
(dp2412
g3
S'qld'
p2413
sg5
S'burton'
p2414
ssS'4741'
p2415
(dp2416
g3
S'qld'
p2417
sg5
S'ball bay'
p2418
ssS'4740'
p2419
(dp2420
g3
S'qld'
p2421
sg5
S'alexandra'
p2422
ssS'4746'
p2423
(dp2424
g3
S'qld'
p2425
sg5
S'may downs'
p2426
ssS'4745'
p2427
(dp2428
g3
S'qld'
p2429
sg5
S'dysart'
p2430
ssS'4744'
p2431
(dp2432
g3
S'qld'
p2433
sg5
S'moranbah'
p2434
ssS'4697'
p2435
(dp2436
g3
S'qld'
p2437
sg5
S'raglan'
p2438
ssS'4714'
p2439
(dp2440
g3
S'qld'
p2441
sg5
S'baree'
p2442
ssS'2331'
p2443
(dp2444
g3
S'nsw'
p2445
sg5
S'singleton military area'
p2446
ssS'6109'
p2447
(dp2448
g3
S'wa'
p2449
sg5
S'maddington'
p2450
ssS'6254'
p2451
(dp2452
g3
S'wa'
p2453
sg5
S'greenbushes'
p2454
ssS'4717'
p2455
(dp2456
g3
S'qld'
p2457
sg5
S'blackwater'
p2458
ssS'4608'
p2459
(dp2460
g3
S'qld'
p2461
sg5
S'charlestown'
p2462
ssS'4606'
p2463
(dp2464
g3
S'qld'
p2465
sg5
S'chelmsford'
p2466
ssS'4710'
p2467
(dp2468
g3
S'qld'
p2469
sg5
S'emu park'
p2470
ssS'4605'
p2471
(dp2472
g3
S'qld'
p2473
sg5
S'barlil'
p2474
ssS'221'
p2475
(dp2476
g3
S'act'
p2477
sg5
S'barton'
p2478
ssS'4601'
p2479
(dp2480
g3
S'qld'
p2481
sg5
S'barambah'
p2482
ssS'2213'
p2483
(dp2484
g3
S'nsw'
p2485
sg5
S'east hills'
p2486
ssS'2212'
p2487
(dp2488
g3
S'nsw'
p2489
sg5
S'revesby'
p2490
ssS'2211'
p2491
(dp2492
g3
S'nsw'
p2493
sg5
S'padstow'
p2494
ssS'1427'
p2495
(dp2496
g3
S'nsw'
p2497
sg5
S'strawberry hills'
p2498
ssS'2217'
p2499
(dp2500
g3
S'nsw'
p2501
sg5
S'beverley park'
p2502
ssS'2216'
p2503
(dp2504
g3
S'nsw'
p2505
sg5
S'banksia'
p2506
ssS'5604'
p2507
(dp2508
g3
S'sa'
p2509
sg5
S'port neill'
p2510
ssS'6208'
p2511
(dp2512
g3
S'wa'
p2513
sg5
S'blythewood'
p2514
ssS'2219'
p2515
(dp2516
g3
S'nsw'
p2517
sg5
S'dolls point'
p2518
ssS'2218'
p2519
(dp2520
g3
S'nsw'
p2521
sg5
S'allawah'
p2522
ssS'6209'
p2523
(dp2524
g3
S'wa'
p2525
sg5
S'furnissdale'
p2526
ssS'6452'
p2527
(dp2528
g3
S'wa'
p2529
sg5
S'buraminya'
p2530
ssS'6952'
p2531
(dp2532
g3
S'wa'
p2533
sg5
S'como'
p2534
ssS'2439'
p2535
(dp2536
g3
S'nsw'
p2537
sg5
S'batar creek'
p2538
ssS'2431'
p2539
(dp2540
g3
S'nsw'
p2541
sg5
S'arakoon'
p2542
ssS'2430'
p2543
(dp2544
g3
S'nsw'
p2545
sg5
S'black head'
p2546
ssS'4719'
p2547
(dp2548
g3
S'qld'
p2549
sg5
S'camboon'
p2550
ssS'6341'
p2551
(dp2552
g3
S'wa'
p2553
sg5
S'nyabing'
p2554
ssS'4518'
p2555
(dp2556
g3
S'qld'
p2557
sg5
S'glass house mountains'
p2558
ssS'4519'
p2559
(dp2560
g3
S'qld'
p2561
sg5
S'beerwah'
p2562
ssS'6346'
p2563
(dp2564
g3
S'wa'
p2565
sg5
S'fitzgerald river national park'
p2566
ssS'4512'
p2567
(dp2568
g3
S'qld'
p2569
sg5
S'bracalba'
p2570
ssS'6348'
p2571
(dp2572
g3
S'wa'
p2573
sg5
S'hopetoun'
p2574
ssS'4510'
p2575
(dp2576
g3
S'qld'
p2577
sg5
S'beachmere'
p2578
ssS'4511'
p2579
(dp2580
g3
S'qld'
p2581
sg5
S'godwin beach'
p2582
ssS'4516'
p2583
(dp2584
g3
S'qld'
p2585
sg5
S'elimbah'
p2586
ssS'4517'
p2587
(dp2588
g3
S'qld'
p2589
sg5
S'beerburrum'
p2590
ssS'4514'
p2591
(dp2592
g3
S'qld'
p2593
sg5
S'bellthorpe'
p2594
ssS'4515'
p2595
(dp2596
g3
S'qld'
p2597
sg5
S'glenfern'
p2598
ssS'2508'
p2599
(dp2600
g3
S'nsw'
p2601
sg5
S'coalcliff'
p2602
ssS'2506'
p2603
(dp2604
g3
S'nsw'
p2605
sg5
S'berkeley'
p2606
ssS'2505'
p2607
(dp2608
g3
S'nsw'
p2609
sg5
S'kemblawarra'
p2610
ssS'2502'
p2611
(dp2612
g3
S'nsw'
p2613
sg5
S'cringila'
p2614
ssS'2500'
p2615
(dp2616
g3
S'nsw'
p2617
sg5
S'coniston'
p2618
ssS'2727'
p2619
(dp2620
g3
S'nsw'
p2621
sg5
S'adjungbilly'
p2622
ssS'2726'
p2623
(dp2624
g3
S'nsw'
p2625
sg5
S'bundarbo'
p2626
ssS'2725'
p2627
(dp2628
g3
S'nsw'
p2629
sg5
S'stockinbingal'
p2630
ssS'2722'
p2631
(dp2632
g3
S'nsw'
p2633
sg5
S'bongalong'
p2634
ssS'2721'
p2635
(dp2636
g3
S'nsw'
p2637
sg5
S'bland'
p2638
ssS'2720'
p2639
(dp2640
g3
S'nsw'
p2641
sg5
S'argalong'
p2642
ssS'5280'
p2643
(dp2644
g3
S'sa'
p2645
sg5
S'beachport'
p2646
ssS'2729'
p2647
(dp2648
g3
S'nsw'
p2649
sg5
S'adelong'
p2650
ssS'5049'
p2651
(dp2652
g3
S'sa'
p2653
sg5
S'kingston park'
p2654
ssS'5048'
p2655
(dp2656
g3
S'sa'
p2657
sg5
S'brighton'
p2658
ssS'5047'
p2659
(dp2660
g3
S'sa'
p2661
sg5
S'darlington'
p2662
ssS'5046'
p2663
(dp2664
g3
S'sa'
p2665
sg5
S'oaklands park'
p2666
ssS'5045'
p2667
(dp2668
g3
S'sa'
p2669
sg5
S'glenelg'
p2670
ssS'5044'
p2671
(dp2672
g3
S'sa'
p2673
sg5
S'glengowrie'
p2674
ssS'5043'
p2675
(dp2676
g3
S'sa'
p2677
sg5
S'ascot park'
p2678
ssS'5042'
p2679
(dp2680
g3
S'sa'
p2681
sg5
S'bedford park'
p2682
ssS'5041'
p2683
(dp2684
g3
S'sa'
p2685
sg5
S'colonel light gardens'
p2686
ssS'5040'
p2687
(dp2688
g3
S'sa'
p2689
sg5
S'novar gardens'
p2690
ssS'3782'
p2691
(dp2692
g3
S'vic'
p2693
sg5
S'avonsleigh'
p2694
ssS'3783'
p2695
(dp2696
g3
S'vic'
p2697
sg5
S'gembrook'
p2698
ssS'1805'
p2699
(dp2700
g3
S'nsw'
p2701
sg5
S'burwood'
p2702
ssS'3781'
p2703
(dp2704
g3
S'vic'
p2705
sg5
S'cockatoo'
p2706
ssS'3786'
p2707
(dp2708
g3
S'vic'
p2709
sg5
S'ferny creek'
p2710
ssS'3787'
p2711
(dp2712
g3
S'vic'
p2713
sg5
S'sassafras'
p2714
ssS'3785'
p2715
(dp2716
g3
S'vic'
p2717
sg5
S'tremont'
p2718
ssS'3788'
p2719
(dp2720
g3
S'vic'
p2721
sg5
S'olinda'
p2722
ssS'3789'
p2723
(dp2724
g3
S'vic'
p2725
sg5
S'sherbrooke'
p2726
ssS'6239'
p2727
(dp2728
g3
S'wa'
p2729
sg5
S'argyle'
p2730
ssS'6237'
p2731
(dp2732
g3
S'wa'
p2733
sg5
S'boyanup'
p2734
ssS'6236'
p2735
(dp2736
g3
S'wa'
p2737
sg5
S'crooked brook'
p2738
ssS'6231'
p2739
(dp2740
g3
S'wa'
p2741
sg5
S'bunbury'
p2742
ssS'6230'
p2743
(dp2744
g3
S'wa'
p2745
sg5
S'bunbury'
p2746
ssS'6233'
p2747
(dp2748
g3
S'wa'
p2749
sg5
S'australind'
p2750
ssS'6232'
p2751
(dp2752
g3
S'wa'
p2753
sg5
S'eaton'
p2754
ssS'7302'
p2755
(dp2756
g3
S'tas'
p2757
sg5
S'bracknell'
p2758
ssS'7303'
p2759
(dp2760
g3
S'tas'
p2761
sg5
S'birralee'
p2762
ssS'7300'
p2763
(dp2764
g3
S'tas'
p2765
sg5
S'devon hills'
p2766
ssS'8865'
p2767
(dp2768
g3
S'vic'
p2769
sg5
S'south melbourne'
p2770
ssS'7306'
p2771
(dp2772
g3
S'tas'
p2773
sg5
S'acacia hills'
p2774
ssS'7307'
p2775
(dp2776
g3
S'tas'
p2777
sg5
S'bakers beach'
p2778
ssS'7304'
p2779
(dp2780
g3
S'tas'
p2781
sg5
S'brandum'
p2782
ssS'7305'
p2783
(dp2784
g3
S'tas'
p2785
sg5
S'merseylea'
p2786
ssS'3250'
p2787
(dp2788
g3
S'vic'
p2789
sg5
S'colac'
p2790
ssS'3251'
p2791
(dp2792
g3
S'vic'
p2793
sg5
S'beeac'
p2794
ssS'3254'
p2795
(dp2796
g3
S'vic'
p2797
sg5
S'cororooke'
p2798
ssS'9020'
p2799
(dp2800
g3
S'qld'
p2801
sg5
S'brisbane'
p2802
ssS'810'
p2803
(dp2804
g3
S'nt'
p2805
sg5
S'alawa'
p2806
ssS'811'
p2807
(dp2808
g3
S'nt'
p2809
sg5
S'casuarina'
p2810
ssS'812'
p2811
(dp2812
g3
S'nt'
p2813
sg5
S'karama'
p2814
ssS'814'
p2815
(dp2816
g3
S'nt'
p2817
sg5
S'nightcliff'
p2818
ssS'2850'
p2819
(dp2820
g3
S'nsw'
p2821
sg5
S'aarons pass'
p2822
ssS'2852'
p2823
(dp2824
g3
S'nsw'
p2825
sg5
S'barneys reef'
p2826
ssS'5461'
p2827
(dp2828
g3
S'sa'
p2829
sg5
S'balaklava'
p2830
ssS'5460'
p2831
(dp2832
g3
S'sa'
p2833
sg5
S'barabba'
p2834
ssS'3331'
p2835
(dp2836
g3
S'vic'
p2837
sg5
S'bannockburn'
p2838
ssS'5462'
p2839
(dp2840
g3
S'sa'
p2841
sg5
S'blyth'
p2842
ssS'3337'
p2843
(dp2844
g3
S'vic'
p2845
sg5
S'kurunjang'
p2846
ssS'5464'
p2847
(dp2848
g3
S'sa'
p2849
sg5
S'anama'
p2850
ssS'3335'
p2851
(dp2852
g3
S'vic'
p2853
sg5
S'plumpton'
p2854
ssS'3334'
p2855
(dp2856
g3
S'vic'
p2857
sg5
S'bungal'
p2858
ssS'1499'
p2859
(dp2860
g3
S'nsw'
p2861
sg5
S'sutherland'
p2862
ssS'3338'
p2863
(dp2864
g3
S'vic'
p2865
sg5
S'brookfield'
p2866
ssS'5267'
p2867
(dp2868
g3
S'sa'
p2869
sg5
S'brimbago'
p2870
ssS'5266'
p2871
(dp2872
g3
S'sa'
p2873
sg5
S'bunbury'
p2874
ssS'5265'
p2875
(dp2876
g3
S'sa'
p2877
sg5
S'coonalpyn'
p2878
ssS'5264'
p2879
(dp2880
g3
S'sa'
p2881
sg5
S'coorong'
p2882
ssS'5263'
p2883
(dp2884
g3
S'sa'
p2885
sg5
S'coonawarra'
p2886
ssS'5262'
p2887
(dp2888
g3
S'sa'
p2889
sg5
S'binnum'
p2890
ssS'5261'
p2891
(dp2892
g3
S'sa'
p2893
sg5
S'cooke plains'
p2894
ssS'5260'
p2895
(dp2896
g3
S'sa'
p2897
sg5
S'bayah'
p2898
ssS'4572'
p2899
(dp2900
g3
S'qld'
p2901
sg5
S'alexandra headland'
p2902
ssS'5269'
p2903
(dp2904
g3
S'sa'
p2905
sg5
S'pine hill'
p2906
ssS'5268'
p2907
(dp2908
g3
S'sa'
p2909
sg5
S'bangham'
p2910
ssS'4573'
p2911
(dp2912
g3
S'qld'
p2913
sg5
S'coolum beach'
p2914
ssS'4574'
p2915
(dp2916
g3
S'qld'
p2917
sg5
S'coolabine'
p2918
ssS'2090'
p2919
(dp2920
g3
S'nsw'
p2921
sg5
S'cremorne'
p2922
ssS'1128'
p2923
(dp2924
g3
S'nsw'
p2925
sg5
S'sydney'
p2926
ssS'1129'
p2927
(dp2928
g3
S'nsw'
p2929
sg5
S'sydney'
p2930
ssS'2834'
p2931
(dp2932
g3
S'nsw'
p2933
sg5
S'lightning ridge'
p2934
ssS'6988'
p2935
(dp2936
g3
S'wa'
p2937
sg5
S'thornlie'
p2938
ssS'1120'
p2939
(dp2940
g3
S'nsw'
p2941
sg5
S'sydney'
p2942
ssS'1121'
p2943
(dp2944
g3
S'nsw'
p2945
sg5
S'sydney'
p2946
ssS'1122'
p2947
(dp2948
g3
S'nsw'
p2949
sg5
S'sydney'
p2950
ssS'1123'
p2951
(dp2952
g3
S'nsw'
p2953
sg5
S'sydney'
p2954
ssS'1124'
p2955
(dp2956
g3
S'nsw'
p2957
sg5
S'sydney'
p2958
ssS'1125'
p2959
(dp2960
g3
S'nsw'
p2961
sg5
S'sydney'
p2962
ssS'1126'
p2963
(dp2964
g3
S'nsw'
p2965
sg5
S'sydney'
p2966
ssS'1127'
p2967
(dp2968
g3
S'nsw'
p2969
sg5
S'sydney'
p2970
ssS'3029'
p2971
(dp2972
g3
S'vic'
p2973
sg5
S'hoppers crossing'
p2974
ssS'3028'
p2975
(dp2976
g3
S'vic'
p2977
sg5
S'altona meadows'
p2978
ssS'3027'
p2979
(dp2980
g3
S'vic'
p2981
sg5
S'laverton raaf'
p2982
ssS'3026'
p2983
(dp2984
g3
S'vic'
p2985
sg5
S'laverton north'
p2986
ssS'3025'
p2987
(dp2988
g3
S'vic'
p2989
sg5
S'altona east'
p2990
ssS'3024'
p2991
(dp2992
g3
S'vic'
p2993
sg5
S'mambourin'
p2994
ssS'3023'
p2995
(dp2996
g3
S'vic'
p2997
sg5
S'burnside'
p2998
ssS'3022'
p2999
(dp3000
g3
S'vic'
p3001
sg5
S'ardeer'
p3002
ssS'3021'
p3003
(dp3004
g3
S'vic'
p3005
sg5
S'albanvale'
p3006
ssS'3020'
p3007
(dp3008
g3
S'vic'
p3009
sg5
S'albion'
p3010
ssS'1010'
p3011
(dp3012
g3
S'nsw'
p3013
sg5
S'sydney'
p3014
ssS'1011'
p3015
(dp3016
g3
S'nsw'
p3017
sg5
S'sydney'
p3018
ssS'1234'
p3019
(dp3020
g3
S'nsw'
p3021
sg5
S'sydney south'
p3022
ssS'1235'
p3023
(dp3024
g3
S'nsw'
p3025
sg5
S'sydney south'
p3026
ssS'1236'
p3027
(dp3028
g3
S'nsw'
p3029
sg5
S'haymarket'
p3030
ssS'1237'
p3031
(dp3032
g3
S'nsw'
p3033
sg5
S'haymarket'
p3034
ssS'1230'
p3035
(dp3036
g3
S'nsw'
p3037
sg5
S'queen victoria building'
p3038
ssS'8045'
p3039
(dp3040
g3
S'vic'
p3041
sg5
S'melbourne'
p3042
ssS'1232'
p3043
(dp3044
g3
S'nsw'
p3045
sg5
S'sydney south'
p3046
ssS'1233'
p3047
(dp3048
g3
S'nsw'
p3049
sg5
S'sydney south'
p3050
ssS'1238'
p3051
(dp3052
g3
S'nsw'
p3053
sg5
S'haymarket'
p3054
ssS'1239'
p3055
(dp3056
g3
S'nsw'
p3057
sg5
S'haymarket'
p3058
ssS'5670'
p3059
(dp3060
g3
S'sa'
p3061
sg5
S'bramfield'
p3062
ssS'5671'
p3063
(dp3064
g3
S'sa'
p3065
sg5
S'baird bay'
p3066
ssS'4358'
p3067
(dp3068
g3
S'qld'
p3069
sg5
S'cambooya'
p3070
ssS'4359'
p3071
(dp3072
g3
S'qld'
p3073
sg5
S'budgee'
p3074
ssS'4354'
p3075
(dp3076
g3
S'qld'
p3077
sg5
S'douglas'
p3078
ssS'4355'
p3079
(dp3080
g3
S'qld'
p3081
sg5
S'anduramba'
p3082
ssS'4356'
p3083
(dp3084
g3
S'qld'
p3085
sg5
S'bongeen'
p3086
ssS'4357'
p3087
(dp3088
g3
S'qld'
p3089
sg5
S'bringalily'
p3090
ssS'4350'
p3091
(dp3092
g3
S'qld'
p3093
sg5
S'athol'
p3094
ssS'4352'
p3095
(dp3096
g3
S'qld'
p3097
sg5
S'amiens'
p3098
ssS'4353'
p3099
(dp3100
g3
S'qld'
p3101
sg5
S'bergen'
p3102
ssS'6509'
p3103
(dp3104
g3
S'wa'
p3105
sg5
S'glentromie'
p3106
ssS'6000'
p3107
(dp3108
g3
S'wa'
p3109
sg5
S'perth'
p3110
ssS'6503'
p3111
(dp3112
g3
S'wa'
p3113
sg5
S'bambun'
p3114
ssS'6502'
p3115
(dp3116
g3
S'wa'
p3117
sg5
S'bindoon'
p3118
ssS'6501'
p3119
(dp3120
g3
S'wa'
p3121
sg5
S'muchea'
p3122
ssS'4678'
p3123
(dp3124
g3
S'qld'
p3125
sg5
S'bororen'
p3126
ssS'6507'
p3127
(dp3128
g3
S'wa'
p3129
sg5
S'cataby'
p3130
ssS'6506'
p3131
(dp3132
g3
S'wa'
p3133
sg5
S'mogumber'
p3134
ssS'6505'
p3135
(dp3136
g3
S'wa'
p3137
sg5
S'wannamal'
p3138
ssS'6504'
p3139
(dp3140
g3
S'wa'
p3141
sg5
S'mooliabeenee'
p3142
ssS'4677'
p3143
(dp3144
g3
S'qld'
p3145
sg5
S'agnes water'
p3146
ssS'4676'
p3147
(dp3148
g3
S'qld'
p3149
sg5
S'gindoran'
p3150
ssS'4674'
p3151
(dp3152
g3
S'qld'
p3153
sg5
S'baffle creek'
p3154
ssS'3809'
p3155
(dp3156
g3
S'vic'
p3157
sg5
S'officer'
p3158
ssS'3808'
p3159
(dp3160
g3
S'vic'
p3161
sg5
S'beaconsfield upper'
p3162
ssS'3805'
p3163
(dp3164
g3
S'vic'
p3165
sg5
S'fountain gate'
p3166
ssS'3804'
p3167
(dp3168
g3
S'vic'
p3169
sg5
S'narre warren east'
p3170
ssS'3807'
p3171
(dp3172
g3
S'vic'
p3173
sg5
S'beaconsfield'
p3174
ssS'3806'
p3175
(dp3176
g3
S'vic'
p3177
sg5
S'berwick'
p3178
ssS'3800'
p3179
(dp3180
g3
S'vic'
p3181
sg5
S'monash university'
p3182
ssS'3803'
p3183
(dp3184
g3
S'vic'
p3185
sg5
S'hallam'
p3186
ssS'3802'
p3187
(dp3188
g3
S'vic'
p3189
sg5
S'endeavour hills'
p3190
ssS'6337'
p3191
(dp3192
g3
S'wa'
p3193
sg5
S'fitzgerald'
p3194
ssS'4671'
p3195
(dp3196
g3
S'qld'
p3197
sg5
S'boolboonda'
p3198
ssS'4670'
p3199
(dp3200
g3
S'qld'
p3201
sg5
S'abbotsford'
p3202
ssS'6437'
p3203
(dp3204
g3
S'wa'
p3205
sg5
S'leinster'
p3206
ssS'6436'
p3207
(dp3208
g3
S'wa'
p3209
sg5
S'menzies'
p3210
ssS'6434'
p3211
(dp3212
g3
S'wa'
p3213
sg5
S'cundeelee'
p3214
ssS'6433'
p3215
(dp3216
g3
S'wa'
p3217
sg5
S'hannans'
p3218
ssS'6432'
p3219
(dp3220
g3
S'wa'
p3221
sg5
S'boulder'
p3222
ssS'6431'
p3223
(dp3224
g3
S'wa'
p3225
sg5
S'boorara'
p3226
ssS'6430'
p3227
(dp3228
g3
S'wa'
p3229
sg5
S'binduli'
p3230
ssS'5700'
p3231
(dp3232
g3
S'sa'
p3233
sg5
S'miranda'
p3234
ssS'6438'
p3235
(dp3236
g3
S'wa'
p3237
sg5
S'lake darlot'
p3238
ssS'6571'
p3239
(dp3240
g3
S'wa'
p3241
sg5
S'yerecoin'
p3242
ssS'2869'
p3243
(dp3244
g3
S'nsw'
p3245
sg5
S'peak hill'
p3246
ssS'3314'
p3247
(dp3248
g3
S'vic'
p3249
sg5
S'bulart'
p3250
ssS'6008'
p3251
(dp3252
g3
S'wa'
p3253
sg5
S'daglish'
p3254
ssS'4174'
p3255
(dp3256
g3
S'qld'
p3257
sg5
S'hemmant'
p3258
ssS'3063'
p3259
(dp3260
g3
S'vic'
p3261
sg5
S'oaklands junction'
p3262
ssS'6758'
p3263
(dp3264
g3
S'wa'
p3265
sg5
S'nullagine'
p3266
ssS'4170'
p3267
(dp3268
g3
S'qld'
p3269
sg5
S'cannon hill'
p3270
ssS'4171'
p3271
(dp3272
g3
S'qld'
p3273
sg5
S'balmoral'
p3274
ssS'4172'
p3275
(dp3276
g3
S'qld'
p3277
sg5
S'murarrie'
p3278
ssS'4173'
p3279
(dp3280
g3
S'qld'
p3281
sg5
S'tingalpa'
p3282
ssS'6753'
p3283
(dp3284
g3
S'wa'
p3285
sg5
S'newman'
p3286
ssS'6751'
p3287
(dp3288
g3
S'wa'
p3289
sg5
S'chichester'
p3290
ssS'4178'
p3291
(dp3292
g3
S'qld'
p3293
sg5
S'lytton'
p3294
ssS'3061'
p3295
(dp3296
g3
S'vic'
p3297
sg5
S'campbellfield'
p3298
ssS'2700'
p3299
(dp3300
g3
S'nsw'
p3301
sg5
S'birrego'
p3302
ssS'7176'
p3303
(dp3304
g3
S'tas'
p3305
sg5
S'kellevie'
p3306
ssS'5810'
p3307
(dp3308
g3
S'sa'
p3309
sg5
S'adelaide'
p3310
ssS'7171'
p3311
(dp3312
g3
S'tas'
p3313
sg5
S'midway point'
p3314
ssS'3066'
p3315
(dp3316
g3
S'vic'
p3317
sg5
S'collingwood'
p3318
ssS'4888'
p3319
(dp3320
g3
S'qld'
p3321
sg5
S'evelyn'
p3322
ssS'3065'
p3323
(dp3324
g3
S'vic'
p3325
sg5
S'fitzroy'
p3326
ssS'2465'
p3327
(dp3328
g3
S'nsw'
p3329
sg5
S'harwood'
p3330
ssS'7172'
p3331
(dp3332
g3
S'tas'
p3333
sg5
S'nugent'
p3334
ssS'4611'
p3335
(dp3336
g3
S'qld'
p3337
sg5
S'marshlands'
p3338
ssS'4610'
p3339
(dp3340
g3
S'qld'
p3341
sg5
S'alice creek'
p3342
ssS'4613'
p3343
(dp3344
g3
S'qld'
p3345
sg5
S'abbeywood'
p3346
ssS'4612'
p3347
(dp3348
g3
S'qld'
p3349
sg5
S'hivesville'
p3350
ssS'4615'
p3351
(dp3352
g3
S'qld'
p3353
sg5
S'barker creek flat'
p3354
ssS'4614'
p3355
(dp3356
g3
S'qld'
p3357
sg5
S'neumgna'
p3358
ssS'2228'
p3359
(dp3360
g3
S'nsw'
p3361
sg5
S'miranda'
p3362
ssS'2229'
p3363
(dp3364
g3
S'nsw'
p3365
sg5
S'caringbah'
p3366
ssS'2226'
p3367
(dp3368
g3
S'nsw'
p3369
sg5
S'bonnet bay'
p3370
ssS'2227'
p3371
(dp3372
g3
S'nsw'
p3373
sg5
S'gymea'
p3374
ssS'2224'
p3375
(dp3376
g3
S'nsw'
p3377
sg5
S'kangaroo point'
p3378
ssS'2225'
p3379
(dp3380
g3
S'nsw'
p3381
sg5
S'caravan head'
p3382
ssS'2222'
p3383
(dp3384
g3
S'nsw'
p3385
sg5
S'penshurst'
p3386
ssS'2223'
p3387
(dp3388
g3
S'nsw'
p3389
sg5
S'mortdale'
p3390
ssS'2220'
p3391
(dp3392
g3
S'nsw'
p3393
sg5
S'hurstville'
p3394
ssS'2221'
p3395
(dp3396
g3
S'nsw'
p3397
sg5
S'blakehurst'
p3398
ssS'4880'
p3399
(dp3400
g3
S'qld'
p3401
sg5
S'arriga'
p3402
ssS'4882'
p3403
(dp3404
g3
S'qld'
p3405
sg5
S'tolga'
p3406
ssS'4883'
p3407
(dp3408
g3
S'qld'
p3409
sg5
S'atherton'
p3410
ssS'2701'
p3411
(dp3412
g3
S'nsw'
p3413
sg5
S'coolamon'
p3414
ssS'9007'
p3415
(dp3416
g3
S'qld'
p3417
sg5
S'brisbane'
p3418
ssS'2469'
p3419
(dp3420
g3
S'nsw'
p3421
sg5
S'banyabba'
p3422
ssS'4505'
p3423
(dp3424
g3
S'qld'
p3425
sg5
S'burpengary'
p3426
ssS'1430'
p3427
(dp3428
g3
S'nsw'
p3429
sg5
S'eveleigh'
p3430
ssS'7829'
p3431
(dp3432
g3
S'tas'
p3433
sg5
S'hobart'
p3434
ssS'7828'
p3435
(dp3436
g3
S'tas'
p3437
sg5
S'hobart'
p3438
ssS'4501'
p3439
(dp3440
g3
S'qld'
p3441
sg5
S'lawnton'
p3442
ssS'4500'
p3443
(dp3444
g3
S'qld'
p3445
sg5
S'bray park'
p3446
ssS'4503'
p3447
(dp3448
g3
S'qld'
p3449
sg5
S'dakabin'
p3450
ssS'4502'
p3451
(dp3452
g3
S'qld'
p3453
sg5
S'petrie'
p3454
ssS'7823'
p3455
(dp3456
g3
S'tas'
p3457
sg5
S'hobart'
p3458
ssS'2797'
p3459
(dp3460
g3
S'nsw'
p3461
sg5
S'garland'
p3462
ssS'7827'
p3463
(dp3464
g3
S'tas'
p3465
sg5
S'hobart'
p3466
ssS'4508'
p3467
(dp3468
g3
S'qld'
p3469
sg5
S'deception bay'
p3470
ssS'6906'
p3471
(dp3472
g3
S'wa'
p3473
sg5
S'north perth'
p3474
ssS'7824'
p3475
(dp3476
g3
S'tas'
p3477
sg5
S'hobart'
p3478
ssS'2088'
p3479
(dp3480
g3
S'nsw'
p3481
sg5
S'mosman'
p3482
ssS'2089'
p3483
(dp3484
g3
S'nsw'
p3485
sg5
S'neutral bay'
p3486
ssS'2082'
p3487
(dp3488
g3
S'nsw'
p3489
sg5
S'berowra heights'
p3490
ssS'2083'
p3491
(dp3492
g3
S'nsw'
p3493
sg5
S'bar point'
p3494
ssS'2080'
p3495
(dp3496
g3
S'nsw'
p3497
sg5
S'mount kuring-gai'
p3498
ssS'2081'
p3499
(dp3500
g3
S'nsw'
p3501
sg5
S'berowra'
p3502
ssS'2086'
p3503
(dp3504
g3
S'nsw'
p3505
sg5
S'frenchs forest'
p3506
ssS'2087'
p3507
(dp3508
g3
S'nsw'
p3509
sg5
S'forestville'
p3510
ssS'2084'
p3511
(dp3512
g3
S'nsw'
p3513
sg5
S'cottage point'
p3514
ssS'2085'
p3515
(dp3516
g3
S'nsw'
p3517
sg5
S'belrose'
p3518
ssS'1191'
p3519
(dp3520
g3
S'nsw'
p3521
sg5
S'sydney'
p3522
ssS'2538'
p3523
(dp3524
g3
S'nsw'
p3525
sg5
S'brooman'
p3526
ssS'2539'
p3527
(dp3528
g3
S'nsw'
p3529
sg5
S'bawley point'
p3530
ssS'1190'
p3531
(dp3532
g3
S'nsw'
p3533
sg5
S'sydney'
p3534
ssS'2533'
p3535
(dp3536
g3
S'nsw'
p3537
sg5
S'bombo'
p3538
ssS'2530'
p3539
(dp3540
g3
S'nsw'
p3541
sg5
S'avondale'
p3542
ssS'2536'
p3543
(dp3544
g3
S'nsw'
p3545
sg5
S'batehaven'
p3546
ssS'3340'
p3547
(dp3548
g3
S'vic'
p3549
sg5
S'bacchus marsh'
p3550
ssS'2534'
p3551
(dp3552
g3
S'nsw'
p3553
sg5
S'foxground'
p3554
ssS'2535'
p3555
(dp3556
g3
S'nsw'
p3557
sg5
S'back forest'
p3558
ssS'2712'
p3559
(dp3560
g3
S'nsw'
p3561
sg5
S'berrigan'
p3562
ssS'2713'
p3563
(dp3564
g3
S'nsw'
p3565
sg5
S'blighty'
p3566
ssS'2710'
p3567
(dp3568
g3
S'nsw'
p3569
sg5
S'barratta'
p3570
ssS'3341'
p3571
(dp3572
g3
S'vic'
p3573
sg5
S'dales creek'
p3574
ssS'2716'
p3575
(dp3576
g3
S'nsw'
p3577
sg5
S'coree south'
p3578
ssS'2717'
p3579
(dp3580
g3
S'nsw'
p3581
sg5
S'dareton'
p3582
ssS'2714'
p3583
(dp3584
g3
S'nsw'
p3585
sg5
S'aratula'
p3586
ssS'2715'
p3587
(dp3588
g3
S'nsw'
p3589
sg5
S'arumpo'
p3590
ssS'9005'
p3591
(dp3592
g3
S'qld'
p3593
sg5
S'brisbane'
p3594
ssS'1195'
p3595
(dp3596
g3
S'nsw'
p3597
sg5
S'sydney'
p3598
ssS'1194'
p3599
(dp3600
g3
S'nsw'
p3601
sg5
S'sydney'
p3602
ssS'5072'
p3603
(dp3604
g3
S'sa'
p3605
sg5
S'auldana'
p3606
ssS'5073'
p3607
(dp3608
g3
S'sa'
p3609
sg5
S'hectorville'
p3610
ssS'5070'
p3611
(dp3612
g3
S'sa'
p3613
sg5
S'felixstow'
p3614
ssS'5071'
p3615
(dp3616
g3
S'sa'
p3617
sg5
S'kent town'
p3618
ssS'5076'
p3619
(dp3620
g3
S'sa'
p3621
sg5
S'athelstone'
p3622
ssS'5074'
p3623
(dp3624
g3
S'sa'
p3625
sg5
S'campbelltown'
p3626
ssS'5075'
p3627
(dp3628
g3
S'sa'
p3629
sg5
S'dernancourt'
p3630
ssS'1830'
p3631
(dp3632
g3
S'nsw'
p3633
sg5
S'granville'
p3634
ssS'1831'
p3635
(dp3636
g3
S'nsw'
p3637
sg5
S'granville'
p3638
ssS'3799'
p3639
(dp3640
g3
S'vic'
p3641
sg5
S'big pats creek'
p3642
ssS'1835'
p3643
(dp3644
g3
S'nsw'
p3645
sg5
S'auburn'
p3646
ssS'3795'
p3647
(dp3648
g3
S'vic'
p3649
sg5
S'silvan'
p3650
ssS'3797'
p3651
(dp3652
g3
S'vic'
p3653
sg5
S'gilderoy'
p3654
ssS'3796'
p3655
(dp3656
g3
S'vic'
p3657
sg5
S'mount evelyn'
p3658
ssS'3791'
p3659
(dp3660
g3
S'vic'
p3661
sg5
S'kallista'
p3662
ssS'3793'
p3663
(dp3664
g3
S'vic'
p3665
sg5
S'monbulk'
p3666
ssS'3792'
p3667
(dp3668
g3
S'vic'
p3669
sg5
S'the patch'
p3670
ssS'2154'
p3671
(dp3672
g3
S'nsw'
p3673
sg5
S'castle hill'
p3674
ssS'2155'
p3675
(dp3676
g3
S'nsw'
p3677
sg5
S'beaumont hills'
p3678
ssS'2156'
p3679
(dp3680
g3
S'nsw'
p3681
sg5
S'annangrove'
p3682
ssS'2157'
p3683
(dp3684
g3
S'nsw'
p3685
sg5
S'canoelands'
p3686
ssS'2150'
p3687
(dp3688
g3
S'nsw'
p3689
sg5
S'harris park'
p3690
ssS'2151'
p3691
(dp3692
g3
S'nsw'
p3693
sg5
S'north parramatta'
p3694
ssS'2152'
p3695
(dp3696
g3
S'nsw'
p3697
sg5
S'northmead'
p3698
ssS'2153'
p3699
(dp3700
g3
S'nsw'
p3701
sg5
S'baulkham hills'
p3702
ssS'6240'
p3703
(dp3704
g3
S'wa'
p3705
sg5
S'lowden'
p3706
ssS'6243'
p3707
(dp3708
g3
S'wa'
p3709
sg5
S'wilga'
p3710
ssS'2158'
p3711
(dp3712
g3
S'nsw'
p3713
sg5
S'dural'
p3714
ssS'2159'
p3715
(dp3716
g3
S'nsw'
p3717
sg5
S'arcadia'
p3718
ssS'2408'
p3719
(dp3720
g3
S'nsw'
p3721
sg5
S'north star'
p3722
ssS'2409'
p3723
(dp3724
g3
S'nsw'
p3725
sg5
S'boggabilla'
p3726
ssS'2829'
p3727
(dp3728
g3
S'nsw'
p3729
sg5
S'combara'
p3730
ssS'5381'
p3731
(dp3732
g3
S'sa'
p3733
sg5
S'brady creek'
p3734
ssS'6920'
p3735
(dp3736
g3
S'wa'
p3737
sg5
S'north beach'
p3738
ssS'4870'
p3739
(dp3740
g3
S'qld'
p3741
sg5
S'aeroglen'
p3742
ssS'3249'
p3743
(dp3744
g3
S'vic'
p3745
sg5
S'alvie'
p3746
ssS'3243'
p3747
(dp3748
g3
S'vic'
p3749
sg5
S'barwon downs'
p3750
ssS'3242'
p3751
(dp3752
g3
S'vic'
p3753
sg5
S'birregurra'
p3754
ssS'3241'
p3755
(dp3756
g3
S'vic'
p3757
sg5
S'bambra'
p3758
ssS'3240'
p3759
(dp3760
g3
S'vic'
p3761
sg5
S'buckley'
p3762
ssS'7310'
p3763
(dp3764
g3
S'tas'
p3765
sg5
S'aberdeen'
p3766
ssS'6603'
p3767
(dp3768
g3
S'wa'
p3769
sg5
S'konnongorring'
p3770
ssS'829'
p3771
(dp3772
g3
S'nt'
p3773
sg5
S'holtze'
p3774
ssS'828'
p3775
(dp3776
g3
S'nt'
p3777
sg5
S'berrimah'
p3778
ssS'821'
p3779
(dp3780
g3
S'nt'
p3781
sg5
S'winnellie'
p3782
ssS'820'
p3783
(dp3784
g3
S'nt'
p3785
sg5
S'bagot'
p3786
ssS'822'
p3787
(dp3788
g3
S'nt'
p3789
sg5
S'acacia hills'
p3790
ssS'4407'
p3791
(dp3792
g3
S'qld'
p3793
sg5
S'cattle creek'
p3794
ssS'2284'
p3795
(dp3796
g3
S'nsw'
p3797
sg5
S'argenton'
p3798
ssS'7030'
p3799
(dp3800
g3
S'tas'
p3801
sg5
S'apsley'
p3802
ssS'9015'
p3803
(dp3804
g3
S'qld'
p3805
sg5
S'brisbane'
p3806
ssS'1480'
p3807
(dp3808
g3
S'nsw'
p3809
sg5
S'kingsgrove'
p3810
ssS'9010'
p3811
(dp3812
g3
S'qld'
p3813
sg5
S'brisbane'
p3814
ssS'3309'
p3815
(dp3816
g3
S'vic'
p3817
sg5
S'digby'
p3818
ssS'5495'
p3819
(dp3820
g3
S'sa'
p3821
sg5
S'baroota'
p3822
ssS'3304'
p3823
(dp3824
g3
S'vic'
p3825
sg5
S'bessiebelle'
p3826
ssS'3305'
p3827
(dp3828
g3
S'vic'
p3829
sg5
S'allestree'
p3830
ssS'5490'
p3831
(dp3832
g3
S'sa'
p3833
sg5
S'caltowie'
p3834
ssS'5491'
p3835
(dp3836
g3
S'sa'
p3837
sg5
S'belalie east'
p3838
ssS'3300'
p3839
(dp3840
g3
S'vic'
p3841
sg5
S'byaduk north'
p3842
ssS'5493'
p3843
(dp3844
g3
S'sa'
p3845
sg5
S'yongala'
p3846
ssS'5252'
p3847
(dp3848
g3
S'sa'
p3849
sg5
S'brukunga'
p3850
ssS'5253'
p3851
(dp3852
g3
S'sa'
p3853
sg5
S'avoca dell'
p3854
ssS'5250'
p3855
(dp3856
g3
S'sa'
p3857
sg5
S'blakiston'
p3858
ssS'5251'
p3859
(dp3860
g3
S'sa'
p3861
sg5
S'bugle ranges'
p3862
ssS'5256'
p3863
(dp3864
g3
S'sa'
p3865
sg5
S'clayton'
p3866
ssS'5254'
p3867
(dp3868
g3
S'sa'
p3869
sg5
S'buccleuch'
p3870
ssS'5255'
p3871
(dp3872
g3
S'sa'
p3873
sg5
S'angas plains'
p3874
ssS'5259'
p3875
(dp3876
g3
S'sa'
p3877
sg5
S'ashville'
p3878
ssS'2711'
p3879
(dp3880
g3
S'nsw'
p3881
sg5
S'booligal'
p3882
ssS'6258'
p3883
(dp3884
g3
S'wa'
p3885
sg5
S'balbarrup'
p3886
ssS'2825'
p3887
(dp3888
g3
S'nsw'
p3889
sg5
S'babinda'
p3890
ssS'2415'
p3891
(dp3892
g3
S'nsw'
p3893
sg5
S'monkerai'
p3894
ssS'1139'
p3895
(dp3896
g3
S'nsw'
p3897
sg5
S'sydney'
p3898
ssS'1138'
p3899
(dp3900
g3
S'nsw'
p3901
sg5
S'sydney'
p3902
ssS'1133'
p3903
(dp3904
g3
S'nsw'
p3905
sg5
S'sydney'
p3906
ssS'1132'
p3907
(dp3908
g3
S'nsw'
p3909
sg5
S'sydney'
p3910
ssS'1131'
p3911
(dp3912
g3
S'nsw'
p3913
sg5
S'sydney'
p3914
ssS'1130'
p3915
(dp3916
g3
S'nsw'
p3917
sg5
S'sydney'
p3918
ssS'1137'
p3919
(dp3920
g3
S'nsw'
p3921
sg5
S'sydney'
p3922
ssS'1136'
p3923
(dp3924
g3
S'nsw'
p3925
sg5
S'sydney'
p3926
ssS'1135'
p3927
(dp3928
g3
S'nsw'
p3929
sg5
S'sydney'
p3930
ssS'1134'
p3931
(dp3932
g3
S'nsw'
p3933
sg5
S'sydney'
p3934
ssS'2792'
p3935
(dp3936
g3
S'nsw'
p3937
sg5
S'burnt yards'
p3938
ssS'6056'
p3939
(dp3940
g3
S'wa'
p3941
sg5
S'baskerville'
p3942
ssS'2793'
p3943
(dp3944
g3
S'nsw'
p3945
sg5
S'darbys falls'
p3946
ssS'4066'
p3947
(dp3948
g3
S'qld'
p3949
sg5
S'auchenflower'
p3950
ssS'6979'
p3951
(dp3952
g3
S'wa'
p3953
sg5
S'victoria park'
p3954
ssS'2790'
p3955
(dp3956
g3
S'nsw'
p3957
sg5
S'ben bullen'
p3958
ssS'3018'
p3959
(dp3960
g3
S'vic'
p3961
sg5
S'altona'
p3962
ssS'3019'
p3963
(dp3964
g3
S'vic'
p3965
sg5
S'braybrook'
p3966
ssS'3012'
p3967
(dp3968
g3
S'vic'
p3969
sg5
S'brooklyn'
p3970
ssS'3013'
p3971
(dp3972
g3
S'vic'
p3973
sg5
S'yarraville'
p3974
ssS'3010'
p3975
(dp3976
g3
S'vic'
p3977
sg5
S'university of melbourne'
p3978
ssS'3011'
p3979
(dp3980
g3
S'vic'
p3981
sg5
S'footscray'
p3982
ssS'7140'
p3983
(dp3984
g3
S'tas'
p3985
sg5
S'black hills'
p3986
ssS'3015'
p3987
(dp3988
g3
S'vic'
p3989
sg5
S'newport'
p3990
ssS'2794'
p3991
(dp3992
g3
S'nsw'
p3993
sg5
S'bumbaldry'
p3994
ssS'1009'
p3995
(dp3996
g3
S'nsw'
p3997
sg5
S'sydney'
p3998
ssS'1008'
p3999
(dp4000
g3
S'nsw'
p4001
sg5
S'sydney'
p4002
ssS'1007'
p4003
(dp4004
g3
S'nsw'
p4005
sg5
S'sydney'
p4006
ssS'1006'
p4007
(dp4008
g3
S'nsw'
p4009
sg5
S'sydney'
p4010
ssS'1005'
p4011
(dp4012
g3
S'nsw'
p4013
sg5
S'sydney'
p4014
ssS'1004'
p4015
(dp4016
g3
S'nsw'
p4017
sg5
S'sydney'
p4018
ssS'1003'
p4019
(dp4020
g3
S'nsw'
p4021
sg5
S'sydney'
p4022
ssS'1002'
p4023
(dp4024
g3
S'nsw'
p4025
sg5
S'sydney'
p4026
ssS'1001'
p4027
(dp4028
g3
S'nsw'
p4029
sg5
S'sydney'
p4030
ssS'1227'
p4031
(dp4032
g3
S'nsw'
p4033
sg5
S'queen victoria building'
p4034
ssS'8500'
p4035
(dp4036
g3
S'vic'
p4037
sg5
S'north melbourne'
p4038
ssS'8051'
p4039
(dp4040
g3
S'vic'
p4041
sg5
S'melbourne'
p4042
ssS'1224'
p4043
(dp4044
g3
S'nsw'
p4045
sg5
S'royal exchange'
p4046
ssS'1223'
p4047
(dp4048
g3
S'nsw'
p4049
sg5
S'royal exchange'
p4050
ssS'1222'
p4051
(dp4052
g3
S'nsw'
p4053
sg5
S'royal exchange'
p4054
ssS'8507'
p4055
(dp4056
g3
S'vic'
p4057
sg5
S'carlton'
p4058
ssS'1220'
p4059
(dp4060
g3
S'nsw'
p4061
sg5
S'grosvenor place'
p4062
ssS'4183'
p4063
(dp4064
g3
S'qld'
p4065
sg5
S'amity'
p4066
ssS'4184'
p4067
(dp4068
g3
S'qld'
p4069
sg5
S'coochiemudlo island'
p4070
ssS'1229'
p4071
(dp4072
g3
S'nsw'
p4073
sg5
S'queen victoria building'
p4074
ssS'1228'
p4075
(dp4076
g3
S'nsw'
p4077
sg5
S'queen victoria building'
p4078
ssS'6536'
p4079
(dp4080
g3
S'wa'
p4081
sg5
S'kalbarri'
p4082
ssS'6537'
p4083
(dp4084
g3
S'wa'
p4085
sg5
S'denham'
p4086
ssS'5661'
p4087
(dp4088
g3
S'sa'
p4089
sg5
S'koolgera'
p4090
ssS'5660'
p4091
(dp4092
g3
S'sa'
p4093
sg5
S'chilpenunda'
p4094
ssS'6532'
p4095
(dp4096
g3
S'wa'
p4097
sg5
S'ajana'
p4098
ssS'6530'
p4099
(dp4100
g3
S'wa'
p4101
sg5
S'beachlands'
p4102
ssS'6531'
p4103
(dp4104
g3
S'wa'
p4105
sg5
S'geraldton'
p4106
ssS'4347'
p4107
(dp4108
g3
S'qld'
p4109
sg5
S'grantham'
p4110
ssS'4346'
p4111
(dp4112
g3
S'qld'
p4113
sg5
S'marburg'
p4114
ssS'4345'
p4115
(dp4116
g3
S'qld'
p4117
sg5
S'gatton college'
p4118
ssS'4344'
p4119
(dp4120
g3
S'qld'
p4121
sg5
S'carpendale'
p4122
ssS'4343'
p4123
(dp4124
g3
S'qld'
p4125
sg5
S'adare'
p4126
ssS'4342'
p4127
(dp4128
g3
S'qld'
p4129
sg5
S'crowley vale'
p4130
ssS'4341'
p4131
(dp4132
g3
S'qld'
p4133
sg5
S'blenheim'
p4134
ssS'4340'
p4135
(dp4136
g3
S'qld'
p4137
sg5
S'ashwell'
p4138
ssS'2880'
p4139
(dp4140
g3
S'nsw'
p4141
sg5
S'broken hill'
p4142
ssS'3878'
p4143
(dp4144
g3
S'vic'
p4145
sg5
S'eagle point'
p4146
ssS'3870'
p4147
(dp4148
g3
S'vic'
p4149
sg5
S'boolarra'
p4150
ssS'3871'
p4151
(dp4152
g3
S'vic'
p4153
sg5
S'allambee reserve'
p4154
ssS'3873'
p4155
(dp4156
g3
S'vic'
p4157
sg5
S'gormandale'
p4158
ssS'3874'
p4159
(dp4160
g3
S'vic'
p4161
sg5
S'carrajung south'
p4162
ssS'3875'
p4163
(dp4164
g3
S'vic'
p4165
sg5
S'bairnsdale'
p4166
ssS'6403'
p4167
(dp4168
g3
S'wa'
p4169
sg5
S'grass valley'
p4170
ssS'6401'
p4171
(dp4172
g3
S'wa'
p4173
sg5
S'buckland'
p4174
ssS'6407'
p4175
(dp4176
g3
S'wa'
p4177
sg5
S'cunderdin'
p4178
ssS'6405'
p4179
(dp4180
g3
S'wa'
p4181
sg5
S'greenwoods valley'
p4182
ssS'6409'
p4183
(dp4184
g3
S'wa'
p4185
sg5
S'doongin'
p4186
ssS'5710'
p4187
(dp4188
g3
S'sa'
p4189
sg5
S'commissariat point'
p4190
ssS'9009'
p4191
(dp4192
g3
S'qld'
p4193
sg5
S'brisbane'
p4194
ssS'6911'
p4195
(dp4196
g3
S'wa'
p4197
sg5
S'cottesloe'
p4198
ssS'3904'
p4199
(dp4200
g3
S'vic'
p4201
sg5
S'metung'
p4202
ssS'3900'
p4203
(dp4204
g3
S'vic'
p4205
sg5
S'benambra'
p4206
ssS'3902'
p4207
(dp4208
g3
S'vic'
p4209
sg5
S'bumberrah'
p4210
ssS'3903'
p4211
(dp4212
g3
S'vic'
p4213
sg5
S'swan reach'
p4214
ssS'3909'
p4215
(dp4216
g3
S'vic'
p4217
sg5
S'kalimna'
p4218
ssS'9008'
p4219
(dp4220
g3
S'qld'
p4221
sg5
S'brisbane'
p4222
ssS'6740'
p4223
(dp4224
g3
S'wa'
p4225
sg5
S'drysdale river'
p4226
ssS'6743'
p4227
(dp4228
g3
S'wa'
p4229
sg5
S'cambridge gulf'
p4230
ssS'4165'
p4231
(dp4232
g3
S'qld'
p4233
sg5
S'mount cotton'
p4234
ssS'4164'
p4235
(dp4236
g3
S'qld'
p4237
sg5
S'thornlands'
p4238
ssS'4163'
p4239
(dp4240
g3
S'qld'
p4241
sg5
S'cleveland'
p4242
ssS'4161'
p4243
(dp4244
g3
S'qld'
p4245
sg5
S'alexandra hills'
p4246
ssS'4160'
p4247
(dp4248
g3
S'qld'
p4249
sg5
S'ormiston'
p4250
ssS'4169'
p4251
(dp4252
g3
S'qld'
p4253
sg5
S'east brisbane'
p4254
ssS'5800'
p4255
(dp4256
g3
S'sa'
p4257
sg5
S'adelaide'
p4258
ssS'6336'
p4259
(dp4260
g3
S'wa'
p4261
sg5
S'cowalellup'
p4262
ssS'200'
p4263
(dp4264
g3
S'act'
p4265
sg5
S'australian national university'
p4266
ssS'2231'
p4267
(dp4268
g3
S'nsw'
p4269
sg5
S'kurnell'
p4270
ssS'2230'
p4271
(dp4272
g3
S'nsw'
p4273
sg5
S'bundeena'
p4274
ssS'2233'
p4275
(dp4276
g3
S'nsw'
p4277
sg5
S'engadine'
p4278
ssS'2232'
p4279
(dp4280
g3
S'nsw'
p4281
sg5
S'audley'
p4282
ssS'2234'
p4283
(dp4284
g3
S'nsw'
p4285
sg5
S'alfords point'
p4286
ssS'6050'
p4287
(dp4288
g3
S'wa'
p4289
sg5
S'coolbinia'
p4290
ssS'7814'
p4291
(dp4292
g3
S'tas'
p4293
sg5
S'hobart'
p4294
ssS'5093'
p4295
(dp4296
g3
S'sa'
p4297
sg5
S'para vista'
p4298
ssS'7812'
p4299
(dp4300
g3
S'tas'
p4301
sg5
S'hobart'
p4302
ssS'7813'
p4303
(dp4304
g3
S'tas'
p4305
sg5
S'hobart'
p4306
ssS'7810'
p4307
(dp4308
g3
S'tas'
p4309
sg5
S'hobart'
p4310
ssS'7811'
p4311
(dp4312
g3
S'tas'
p4313
sg5
S'hobart'
p4314
ssS'3496'
p4315
(dp4316
g3
S'vic'
p4317
sg5
S'cardross'
p4318
ssS'5094'
p4319
(dp4320
g3
S'sa'
p4321
sg5
S'cavan'
p4322
ssS'3494'
p4323
(dp4324
g3
S'vic'
p4325
sg5
S'carwarp'
p4326
ssS'3490'
p4327
(dp4328
g3
S'vic'
p4329
sg5
S'boinka'
p4330
ssS'3491'
p4331
(dp4332
g3
S'vic'
p4333
sg5
S'patchewollock'
p4334
ssS'2095'
p4335
(dp4336
g3
S'nsw'
p4337
sg5
S'manly'
p4338
ssS'2094'
p4339
(dp4340
g3
S'nsw'
p4341
sg5
S'fairlight'
p4342
ssS'2097'
p4343
(dp4344
g3
S'nsw'
p4345
sg5
S'collaroy'
p4346
ssS'2096'
p4347
(dp4348
g3
S'nsw'
p4349
sg5
S'curl curl'
p4350
ssS'3658'
p4351
(dp4352
g3
S'vic'
p4353
sg5
S'broadford'
p4354
ssS'3659'
p4355
(dp4356
g3
S'vic'
p4357
sg5
S'sugarloaf creek'
p4358
ssS'2093'
p4359
(dp4360
g3
S'nsw'
p4361
sg5
S'balgowlah'
p4362
ssS'2092'
p4363
(dp4364
g3
S'nsw'
p4365
sg5
S'seaforth'
p4366
ssS'5097'
p4367
(dp4368
g3
S'sa'
p4369
sg5
S'redwood park'
p4370
ssS'2099'
p4371
(dp4372
g3
S'nsw'
p4373
sg5
S'cromer'
p4374
ssS'2525'
p4375
(dp4376
g3
S'nsw'
p4377
sg5
S'figtree'
p4378
ssS'4497'
p4379
(dp4380
g3
S'qld'
p4381
sg5
S'daymar'
p4382
ssS'2527'
p4383
(dp4384
g3
S'nsw'
p4385
sg5
S'albion park'
p4386
ssS'2526'
p4387
(dp4388
g3
S'nsw'
p4389
sg5
S'cordeaux'
p4390
ssS'2520'
p4391
(dp4392
g3
S'nsw'
p4393
sg5
S'wollongong'
p4394
ssS'2522'
p4395
(dp4396
g3
S'nsw'
p4397
sg5
S'university of wollongong'
p4398
ssS'2529'
p4399
(dp4400
g3
S'nsw'
p4401
sg5
S'blackbutt'
p4402
ssS'2528'
p4403
(dp4404
g3
S'nsw'
p4405
sg5
S'barrack heights'
p4406
ssS'4494'
p4407
(dp4408
g3
S'qld'
p4409
sg5
S'bungunya'
p4410
ssS'4600'
p4411
(dp4412
g3
S'qld'
p4413
sg5
S'black snake'
p4414
ssS'4492'
p4415
(dp4416
g3
S'qld'
p4417
sg5
S'bullawarra'
p4418
ssS'5065'
p4419
(dp4420
g3
S'sa'
p4421
sg5
S'dulwich'
p4422
ssS'5064'
p4423
(dp4424
g3
S'sa'
p4425
sg5
S'glen osmond'
p4426
ssS'5067'
p4427
(dp4428
g3
S'sa'
p4429
sg5
S'beulah park'
p4430
ssS'5066'
p4431
(dp4432
g3
S'sa'
p4433
sg5
S'beaumont'
p4434
ssS'5061'
p4435
(dp4436
g3
S'sa'
p4437
sg5
S'malvern'
p4438
ssS'4491'
p4439
(dp4440
g3
S'qld'
p4441
sg5
S'eulo'
p4442
ssS'5063'
p4443
(dp4444
g3
S'sa'
p4445
sg5
S'eastwood'
p4446
ssS'5062'
p4447
(dp4448
g3
S'sa'
p4449
sg5
S'brown hill creek'
p4450
ssS'2705'
p4451
(dp4452
g3
S'nsw'
p4453
sg5
S'brobenah'
p4454
ssS'4881'
p4455
(dp4456
g3
S'qld'
p4457
sg5
S'koah'
p4458
ssS'2707'
p4459
(dp4460
g3
S'nsw'
p4461
sg5
S'argoon'
p4462
ssS'2706'
p4463
(dp4464
g3
S'nsw'
p4465
sg5
S'darlington point'
p4466
ssS'5069'
p4467
(dp4468
g3
S'sa'
p4469
sg5
S'college park'
p4470
ssS'5068'
p4471
(dp4472
g3
S'sa'
p4473
sg5
S'heathpool'
p4474
ssS'2703'
p4475
(dp4476
g3
S'nsw'
p4477
sg5
S'yanco'
p4478
ssS'2702'
p4479
(dp4480
g3
S'nsw'
p4481
sg5
S'ganmain'
p4482
ssS'2210'
p4483
(dp4484
g3
S'nsw'
p4485
sg5
S'lugarno'
p4486
ssS'4408'
p4487
(dp4488
g3
S'qld'
p4489
sg5
S'bell'
p4490
ssS'4404'
p4491
(dp4492
g3
S'qld'
p4493
sg5
S'bowenville'
p4494
ssS'4405'
p4495
(dp4496
g3
S'qld'
p4497
sg5
S'blaxland'
p4498
ssS'4406'
p4499
(dp4500
g3
S'qld'
p4501
sg5
S'boondandilla'
p4502
ssS'2214'
p4503
(dp4504
g3
S'nsw'
p4505
sg5
S'milperra'
p4506
ssS'4400'
p4507
(dp4508
g3
S'qld'
p4509
sg5
S'kingsthorpe'
p4510
ssS'4401'
p4511
(dp4512
g3
S'qld'
p4513
sg5
S'acland'
p4514
ssS'4402'
p4515
(dp4516
g3
S'qld'
p4517
sg5
S'cooyar'
p4518
ssS'4403'
p4519
(dp4520
g3
S'qld'
p4521
sg5
S'brymaroo'
p4522
ssS'2147'
p4523
(dp4524
g3
S'nsw'
p4525
sg5
S'kings langley'
p4526
ssS'2146'
p4527
(dp4528
g3
S'nsw'
p4529
sg5
S'old toongabbie'
p4530
ssS'2145'
p4531
(dp4532
g3
S'nsw'
p4533
sg5
S'girraween'
p4534
ssS'2144'
p4535
(dp4536
g3
S'nsw'
p4537
sg5
S'auburn'
p4538
ssS'2143'
p4539
(dp4540
g3
S'nsw'
p4541
sg5
S'birrong'
p4542
ssS'2142'
p4543
(dp4544
g3
S'nsw'
p4545
sg5
S'blaxcell'
p4546
ssS'2141'
p4547
(dp4548
g3
S'nsw'
p4549
sg5
S'berala'
p4550
ssS'2140'
p4551
(dp4552
g3
S'nsw'
p4553
sg5
S'homebush'
p4554
ssS'6253'
p4555
(dp4556
g3
S'wa'
p4557
sg5
S'balingup'
p4558
ssS'6252'
p4559
(dp4560
g3
S'wa'
p4561
sg5
S'mullalyup'
p4562
ssS'6251'
p4563
(dp4564
g3
S'wa'
p4565
sg5
S'brazier'
p4566
ssS'4498'
p4567
(dp4568
g3
S'qld'
p4569
sg5
S'kioma'
p4570
ssS'6256'
p4571
(dp4572
g3
S'wa'
p4573
sg5
S'glenlynn'
p4574
ssS'6255'
p4575
(dp4576
g3
S'wa'
p4577
sg5
S'benjinup'
p4578
ssS'2148'
p4579
(dp4580
g3
S'nsw'
p4581
sg5
S'arndell park'
p4582
ssS'2411'
p4583
(dp4584
g3
S'nsw'
p4585
sg5
S'croppa creek'
p4586
ssS'3276'
p4587
(dp4588
g3
S'vic'
p4589
sg5
S'minjah'
p4590
ssS'3277'
p4591
(dp4592
g3
S'vic'
p4593
sg5
S'allansford'
p4594
ssS'3274'
p4595
(dp4596
g3
S'vic'
p4597
sg5
S'caramut'
p4598
ssS'3275'
p4599
(dp4600
g3
S'vic'
p4601
sg5
S'mailors flat'
p4602
ssS'3272'
p4603
(dp4604
g3
S'vic'
p4605
sg5
S'mortlake'
p4606
ssS'3273'
p4607
(dp4608
g3
S'vic'
p4609
sg5
S'hexham'
p4610
ssS'3270'
p4611
(dp4612
g3
S'vic'
p4613
sg5
S'peterborough'
p4614
ssS'3271'
p4615
(dp4616
g3
S'vic'
p4617
sg5
S'darlington'
p4618
ssS'3278'
p4619
(dp4620
g3
S'vic'
p4621
sg5
S'purnim'
p4622
ssS'3279'
p4623
(dp4624
g3
S'vic'
p4625
sg5
S'ballangeich'
p4626
ssS'832'
p4627
(dp4628
g3
S'nt'
p4629
sg5
S'gunn'
p4630
ssS'3475'
p4631
(dp4632
g3
S'vic'
p4633
sg5
S'archdale'
p4634
ssS'830'
p4635
(dp4636
g3
S'nt'
p4637
sg5
S'driver'
p4638
ssS'831'
p4639
(dp4640
g3
S'nt'
p4641
sg5
S'palmerston'
p4642
ssS'836'
p4643
(dp4644
g3
S'nt'
p4645
sg5
S'girraween'
p4646
ssS'837'
p4647
(dp4648
g3
S'nt'
p4649
sg5
S'manton'
p4650
ssS'3472'
p4651
(dp4652
g3
S'vic'
p4653
sg5
S'bet bet'
p4654
ssS'835'
p4655
(dp4656
g3
S'nt'
p4657
sg5
S'howard springs'
p4658
ssS'838'
p4659
(dp4660
g3
S'nt'
p4661
sg5
S'berry springs'
p4662
ssS'3478'
p4663
(dp4664
g3
S'vic'
p4665
sg5
S'avon plains'
p4666
ssS'3319'
p4667
(dp4668
g3
S'vic'
p4669
sg5
S'apsley'
p4670
ssS'3318'
p4671
(dp4672
g3
S'vic'
p4673
sg5
S'charam'
p4674
ssS'7021'
p4675
(dp4676
g3
S'tas'
p4677
sg5
S'lauderdale'
p4678
ssS'7020'
p4679
(dp4680
g3
S'tas'
p4681
sg5
S'clifton beach'
p4682
ssS'7027'
p4683
(dp4684
g3
S'tas'
p4685
sg5
S'colebrook'
p4686
ssS'7026'
p4687
(dp4688
g3
S'tas'
p4689
sg5
S'campania'
p4690
ssS'7025'
p4691
(dp4692
g3
S'tas'
p4693
sg5
S'dulcot'
p4694
ssS'7024'
p4695
(dp4696
g3
S'tas'
p4697
sg5
S'cremorne'
p4698
ssS'3311'
p4699
(dp4700
g3
S'vic'
p4701
sg5
S'casterton'
p4702
ssS'3310'
p4703
(dp4704
g3
S'vic'
p4705
sg5
S'merino'
p4706
ssS'5485'
p4707
(dp4708
g3
S'sa'
p4709
sg5
S'wilmington'
p4710
ssS'3312'
p4711
(dp4712
g3
S'vic'
p4713
sg5
S'bahgallah'
p4714
ssS'5483'
p4715
(dp4716
g3
S'sa'
p4717
sg5
S'melrose'
p4718
ssS'5482'
p4719
(dp4720
g3
S'sa'
p4721
sg5
S'booleroo centre'
p4722
ssS'5481'
p4723
(dp4724
g3
S'sa'
p4725
sg5
S'bangor'
p4726
ssS'5480'
p4727
(dp4728
g3
S'sa'
p4729
sg5
S'appila'
p4730
ssS'7023'
p4731
(dp4732
g3
S'tas'
p4733
sg5
S'opossum bay'
p4734
ssS'7022'
p4735
(dp4736
g3
S'tas'
p4737
sg5
S'south arm'
p4738
ssS'5245'
p4739
(dp4740
g3
S'sa'
p4741
sg5
S'hahndorf'
p4742
ssS'5244'
p4743
(dp4744
g3
S'sa'
p4745
sg5
S'charleston'
p4746
ssS'5246'
p4747
(dp4748
g3
S'sa'
p4749
sg5
S'woodhouse'
p4750
ssS'5241'
p4751
(dp4752
g3
S'sa'
p4753
sg5
S'lobethal'
p4754
ssS'5240'
p4755
(dp4756
g3
S'sa'
p4757
sg5
S'lenswood'
p4758
ssS'5243'
p4759
(dp4760
g3
S'sa'
p4761
sg5
S'oakbank'
p4762
ssS'5242'
p4763
(dp4764
g3
S'sa'
p4765
sg5
S'balhannah'
p4766
ssS'4711'
p4767
(dp4768
g3
S'qld'
p4769
sg5
S'glendale'
p4770
ssS'4382'
p4771
(dp4772
g3
S'qld'
p4773
sg5
S'ballandean'
p4774
ssS'9002'
p4775
(dp4776
g3
S'qld'
p4777
sg5
S'brisbane'
p4778
ssS'6470'
p4779
(dp4780
g3
S'wa'
p4781
sg5
S'kulja'
p4782
ssS'9001'
p4783
(dp4784
g3
S'qld'
p4785
sg5
S'brisbane'
p4786
ssS'9000'
p4787
(dp4788
g3
S'qld'
p4789
sg5
S'brisbane'
p4790
ssS'3005'
p4791
(dp4792
g3
S'vic'
p4793
sg5
S'world trade centre'
p4794
ssS'3004'
p4795
(dp4796
g3
S'vic'
p4797
sg5
S'melbourne'
p4798
ssS'3006'
p4799
(dp4800
g3
S'vic'
p4801
sg5
S'southbank'
p4802
ssS'3001'
p4803
(dp4804
g3
S'vic'
p4805
sg5
S'melbourne'
p4806
ssS'3000'
p4807
(dp4808
g3
S'vic'
p4809
sg5
S'melbourne'
p4810
ssS'3003'
p4811
(dp4812
g3
S'vic'
p4813
sg5
S'west melbourne'
p4814
ssS'3002'
p4815
(dp4816
g3
S'vic'
p4817
sg5
S'east melbourne'
p4818
ssS'3008'
p4819
(dp4820
g3
S'vic'
p4821
sg5
S'docklands'
p4822
ssS'1582'
p4823
(dp4824
g3
S'nsw'
p4825
sg5
S'crows nest'
p4826
ssS'3315'
p4827
(dp4828
g3
S'vic'
p4829
sg5
S'brit brit'
p4830
ssS'7155'
p4831
(dp4832
g3
S'tas'
p4833
sg5
S'kettering'
p4834
ssS'7151'
p4835
(dp4836
g3
S'tas'
p4837
sg5
S'casey'
p4838
ssS'7150'
p4839
(dp4840
g3
S'tas'
p4841
sg5
S'adventure bay'
p4842
ssS'1038'
p4843
(dp4844
g3
S'nsw'
p4845
sg5
S'sydney'
p4846
ssS'1039'
p4847
(dp4848
g3
S'nsw'
p4849
sg5
S'sydney'
p4850
ssS'3317'
p4851
(dp4852
g3
S'vic'
p4853
sg5
S'harrow'
p4854
ssS'1032'
p4855
(dp4856
g3
S'nsw'
p4857
sg5
S'sydney'
p4858
ssS'1033'
p4859
(dp4860
g3
S'nsw'
p4861
sg5
S'sydney'
p4862
ssS'1030'
p4863
(dp4864
g3
S'nsw'
p4865
sg5
S'sydney'
p4866
ssS'1031'
p4867
(dp4868
g3
S'nsw'
p4869
sg5
S'sydney'
p4870
ssS'1036'
p4871
(dp4872
g3
S'nsw'
p4873
sg5
S'sydney'
p4874
ssS'1037'
p4875
(dp4876
g3
S'nsw'
p4877
sg5
S'sydney'
p4878
ssS'1034'
p4879
(dp4880
g3
S'nsw'
p4881
sg5
S'sydney'
p4882
ssS'1035'
p4883
(dp4884
g3
S'nsw'
p4885
sg5
S'sydney'
p4886
ssS'1212'
p4887
(dp4888
g3
S'nsw'
p4889
sg5
S'australia square'
p4890
ssS'1213'
p4891
(dp4892
g3
S'nsw'
p4893
sg5
S'australia square'
p4894
ssS'1210'
p4895
(dp4896
g3
S'nsw'
p4897
sg5
S'australia square'
p4898
ssS'1211'
p4899
(dp4900
g3
S'nsw'
p4901
sg5
S'australia square'
p4902
ssS'1216'
p4903
(dp4904
g3
S'nsw'
p4905
sg5
S'grosvenor place'
p4906
ssS'1217'
p4907
(dp4908
g3
S'nsw'
p4909
sg5
S'grosvenor place'
p4910
ssS'1214'
p4911
(dp4912
g3
S'nsw'
p4913
sg5
S'australia square'
p4914
ssS'8069'
p4915
(dp4916
g3
S'vic'
p4917
sg5
S'melbourne'
p4918
ssS'8066'
p4919
(dp4920
g3
S'vic'
p4921
sg5
S'melbourne'
p4922
ssS'1218'
p4923
(dp4924
g3
S'nsw'
p4925
sg5
S'grosvenor place'
p4926
ssS'1219'
p4927
(dp4928
g3
S'nsw'
p4929
sg5
S'grosvenor place'
p4930
ssS'8060'
p4931
(dp4932
g3
S'vic'
p4933
sg5
S'melbourne'
p4934
ssS'8061'
p4935
(dp4936
g3
S'vic'
p4937
sg5
S'melbourne'
p4938
ssS'6521'
p4939
(dp4940
g3
S'wa'
p4941
sg5
S'badgingarra'
p4942
ssS'4378'
p4943
(dp4944
g3
S'qld'
p4945
sg5
S'applethorpe'
p4946
ssS'6522'
p4947
(dp4948
g3
S'wa'
p4949
sg5
S'bundanoon'
p4950
ssS'6525'
p4951
(dp4952
g3
S'wa'
p4953
sg5
S'allanooka'
p4954
ssS'4372'
p4955
(dp4956
g3
S'qld'
p4957
sg5
S'tannymorel'
p4958
ssS'4373'
p4959
(dp4960
g3
S'qld'
p4961
sg5
S'killarney'
p4962
ssS'5654'
p4963
(dp4964
g3
S'sa'
p4965
sg5
S'cocata'
p4966
ssS'5655'
p4967
(dp4968
g3
S'sa'
p4969
sg5
S'bockelberg'
p4970
ssS'5652'
p4971
(dp4972
g3
S'sa'
p4973
sg5
S'paney'
p4974
ssS'4377'
p4975
(dp4976
g3
S'qld'
p4977
sg5
S'glen niven'
p4978
ssS'5650'
p4979
(dp4980
g3
S'sa'
p4981
sg5
S'cootra'
p4982
ssS'5651'
p4983
(dp4984
g3
S'sa'
p4985
sg5
S'kyancutta'
p4986
ssS'2899'
p4987
(dp4988
g3
S'nsw'
p4989
sg5
S'norfolk island'
p4990
ssS'2898'
p4991
(dp4992
g3
S'nsw'
p4993
sg5
S'lord howe island'
p4994
ssS'1106'
p4995
(dp4996
g3
S'nsw'
p4997
sg5
S'sydney'
p4998
ssS'1107'
p4999
(dp5000
g3
S'nsw'
p5001
sg5
S'sydney'
p5002
ssS'1105'
p5003
(dp5004
g3
S'nsw'
p5005
sg5
S'sydney'
p5006
ssS'1450'
p5007
(dp5008
g3
S'nsw'
p5009
sg5
S'camperdown'
p5010
ssS'1100'
p5011
(dp5012
g3
S'nsw'
p5013
sg5
S'sydney'
p5014
ssS'1101'
p5015
(dp5016
g3
S'nsw'
p5017
sg5
S'sydney'
p5018
ssS'1108'
p5019
(dp5020
g3
S'nsw'
p5021
sg5
S'sydney'
p5022
ssS'1109'
p5023
(dp5024
g3
S'nsw'
p5025
sg5
S'sydney'
p5026
ssS'3869'
p5027
(dp5028
g3
S'vic'
p5029
sg5
S'jumbuk'
p5030
ssS'4455'
p5031
(dp5032
g3
S'qld'
p5033
sg5
S'ballaroo'
p5034
ssS'3862'
p5035
(dp5036
g3
S'vic'
p5037
sg5
S'castleburn'
p5038
ssS'3860'
p5039
(dp5040
g3
S'vic'
p5041
sg5
S'boisdale'
p5042
ssS'4712'
p5043
(dp5044
g3
S'qld'
p5045
sg5
S'duaringa'
p5046
ssS'3865'
p5047
(dp5048
g3
S'vic'
p5049
sg5
S'lindenow'
p5050
ssS'3864'
p5051
(dp5052
g3
S'vic'
p5053
sg5
S'fernbank'
p5054
ssS'6419'
p5055
(dp5056
g3
S'wa'
p5057
sg5
S'ardath'
p5058
ssS'6418'
p5059
(dp5060
g3
S'wa'
p5061
sg5
S'bruce rock'
p5062
ssS'5722'
p5063
(dp5064
g3
S'sa'
p5065
sg5
S'andamooka'
p5066
ssS'5723'
p5067
(dp5068
g3
S'sa'
p5069
sg5
S'coober pedy'
p5070
ssS'5720'
p5071
(dp5072
g3
S'sa'
p5073
sg5
S'pimba'
p5074
ssS'6411'
p5075
(dp5076
g3
S'wa'
p5077
sg5
S'doodlakine'
p5078
ssS'6410'
p5079
(dp5080
g3
S'wa'
p5081
sg5
S'bungulla'
p5082
ssS'5724'
p5083
(dp5084
g3
S'sa'
p5085
sg5
S'marla'
p5086
ssS'5725'
p5087
(dp5088
g3
S'sa'
p5089
sg5
S'olympic dam'
p5090
ssS'2805'
p5091
(dp5092
g3
S'nsw'
p5093
sg5
S'gooloogong'
p5094
ssS'3916'
p5095
(dp5096
g3
S'vic'
p5097
sg5
S'merricks'
p5098
ssS'3915'
p5099
(dp5100
g3
S'vic'
p5101
sg5
S'hastings'
p5102
ssS'3913'
p5103
(dp5104
g3
S'vic'
p5105
sg5
S'tyabb'
p5106
ssS'3912'
p5107
(dp5108
g3
S'vic'
p5109
sg5
S'pearcedale'
p5110
ssS'3911'
p5111
(dp5112
g3
S'vic'
p5113
sg5
S'baxter'
p5114
ssS'3910'
p5115
(dp5116
g3
S'vic'
p5117
sg5
S'langwarrin'
p5118
ssS'6343'
p5119
(dp5120
g3
S'wa'
p5121
sg5
S'pingrup'
p5122
ssS'3919'
p5123
(dp5124
g3
S'vic'
p5125
sg5
S'crib point'
p5126
ssS'3918'
p5127
(dp5128
g3
S'vic'
p5129
sg5
S'bittern'
p5130
ssS'6731'
p5131
(dp5132
g3
S'wa'
p5133
sg5
S'cockatoo island'
p5134
ssS'6733'
p5135
(dp5136
g3
S'wa'
p5137
sg5
S'koolan island'
p5138
ssS'4798'
p5139
(dp5140
g3
S'qld'
p5141
sg5
S'calen'
p5142
ssS'4799'
p5143
(dp5144
g3
S'qld'
p5145
sg5
S'bloomsbury'
p5146
ssS'4695'
p5147
(dp5148
g3
S'qld'
p5149
sg5
S'ambrose'
p5150
ssS'4694'
p5151
(dp5152
g3
S'qld'
p5153
sg5
S'aldoga'
p5154
ssS'4152'
p5155
(dp5156
g3
S'qld'
p5157
sg5
S'camp hill'
p5158
ssS'4153'
p5159
(dp5160
g3
S'qld'
p5161
sg5
S'belmont'
p5162
ssS'4151'
p5163
(dp5164
g3
S'qld'
p5165
sg5
S'coorparoo'
p5166
ssS'4156'
p5167
(dp5168
g3
S'qld'
p5169
sg5
S'burbank'
p5170
ssS'4157'
p5171
(dp5172
g3
S'qld'
p5173
sg5
S'capalaba'
p5174
ssS'4154'
p5175
(dp5176
g3
S'qld'
p5177
sg5
S'gumdale'
p5178
ssS'4155'
p5179
(dp5180
g3
S'qld'
p5181
sg5
S'chandler'
p5182
ssS'4158'
p5183
(dp5184
g3
S'qld'
p5185
sg5
S'thorneside'
p5186
ssS'4159'
p5187
(dp5188
g3
S'qld'
p5189
sg5
S'birkdale'
p5190
ssS'5839'
p5191
(dp5192
g3
S'sa'
p5193
sg5
S'adelaide'
p5194
ssS'6904'
p5195
(dp5196
g3
S'wa'
p5197
sg5
S'subiaco'
p5198
ssS'4810'
p5199
(dp5200
g3
S'qld'
p5201
sg5
S'belgian gardens'
p5202
ssS'6312'
p5203
(dp5204
g3
S'wa'
p5205
sg5
S'boundain'
p5206
ssS'6084'
p5207
(dp5208
g3
S'wa'
p5209
sg5
S'avon valley national park'
p5210
ssS'2755'
p5211
(dp5212
g3
S'nsw'
p5213
sg5
S'richmond raaf'
p5214
ssS'6082'
p5215
(dp5216
g3
S'wa'
p5217
sg5
S'bailup'
p5218
ssS'6083'
p5219
(dp5220
g3
S'wa'
p5221
sg5
S'gidgegannup'
p5222
ssS'6081'
p5223
(dp5224
g3
S'wa'
p5225
sg5
S'parkerville'
p5226
ssS'4713'
p5227
(dp5228
g3
S'qld'
p5229
sg5
S'woorabinda'
p5230
ssS'6313'
p5231
(dp5232
g3
S'wa'
p5233
sg5
S'highbury'
p5234
ssS'6646'
p5235
(dp5236
g3
S'wa'
p5237
sg5
S'lake carnegie'
p5238
ssS'6640'
p5239
(dp5240
g3
S'wa'
p5241
sg5
S'cue'
p5242
ssS'6642'
p5243
(dp5244
g3
S'wa'
p5245
sg5
S'angelo river'
p5246
ssS'3489'
p5247
(dp5248
g3
S'vic'
p5249
sg5
S'tempy'
p5250
ssS'7800'
p5251
(dp5252
g3
S'tas'
p5253
sg5
S'hobart'
p5254
ssS'7803'
p5255
(dp5256
g3
S'tas'
p5257
sg5
S'hobart'
p5258
ssS'7802'
p5259
(dp5260
g3
S'tas'
p5261
sg5
S'hobart'
p5262
ssS'7805'
p5263
(dp5264
g3
S'tas'
p5265
sg5
S'hobart'
p5266
ssS'7804'
p5267
(dp5268
g3
S'tas'
p5269
sg5
S'hobart'
p5270
ssS'7807'
p5271
(dp5272
g3
S'tas'
p5273
sg5
S'hobart'
p5274
ssS'7806'
p5275
(dp5276
g3
S'tas'
p5277
sg5
S'hobart'
p5278
ssS'7809'
p5279
(dp5280
g3
S'tas'
p5281
sg5
S'hobart'
p5282
ssS'7808'
p5283
(dp5284
g3
S'tas'
p5285
sg5
S'hobart'
p5286
ssS'3483'
p5287
(dp5288
g3
S'vic'
p5289
sg5
S'ballapur'
p5290
ssS'3482'
p5291
(dp5292
g3
S'vic'
p5293
sg5
S'massey'
p5294
ssS'3485'
p5295
(dp5296
g3
S'vic'
p5297
sg5
S'banyan'
p5298
ssS'3487'
p5299
(dp5300
g3
S'vic'
p5301
sg5
S'lascelles'
p5302
ssS'4563'
p5303
(dp5304
g3
S'qld'
p5305
sg5
S'black mountain'
p5306
ssS'4562'
p5307
(dp5308
g3
S'qld'
p5309
sg5
S'belli park'
p5310
ssS'4561'
p5311
(dp5312
g3
S'qld'
p5313
sg5
S'bridges'
p5314
ssS'4560'
p5315
(dp5316
g3
S'qld'
p5317
sg5
S'bli bli'
p5318
ssS'4567'
p5319
(dp5320
g3
S'qld'
p5321
sg5
S'castaways beach'
p5322
ssS'4566'
p5323
(dp5324
g3
S'qld'
p5325
sg5
S'noosaville'
p5326
ssS'3649'
p5327
(dp5328
g3
S'vic'
p5329
sg5
S'katamatite'
p5330
ssS'4564'
p5331
(dp5332
g3
S'qld'
p5333
sg5
S'marcoola'
p5334
ssS'3647'
p5335
(dp5336
g3
S'vic'
p5337
sg5
S'dookie college'
p5338
ssS'3646'
p5339
(dp5340
g3
S'vic'
p5341
sg5
S'dookie'
p5342
ssS'4569'
p5343
(dp5344
g3
S'qld'
p5345
sg5
S'cooran'
p5346
ssS'3644'
p5347
(dp5348
g3
S'vic'
p5349
sg5
S'cobram'
p5350
ssS'3643'
p5351
(dp5352
g3
S'vic'
p5353
sg5
S'cobram'
p5354
ssS'3641'
p5355
(dp5356
g3
S'vic'
p5357
sg5
S'bearii'
p5358
ssS'3640'
p5359
(dp5360
g3
S'vic'
p5361
sg5
S'katunga'
p5362
ssS'2550'
p5363
(dp5364
g3
S'nsw'
p5365
sg5
S'angledale'
p5366
ssS'2551'
p5367
(dp5368
g3
S'nsw'
p5369
sg5
S'boydtown'
p5370
ssS'6398'
p5371
(dp5372
g3
S'wa'
p5373
sg5
S'broke'
p5374
ssS'6311'
p5375
(dp5376
g3
S'wa'
p5377
sg5
S'commodine'
p5378
ssS'2555'
p5379
(dp5380
g3
S'nsw'
p5381
sg5
S'badgerys creek'
p5382
ssS'2556'
p5383
(dp5384
g3
S'nsw'
p5385
sg5
S'bringelly'
p5386
ssS'2557'
p5387
(dp5388
g3
S'nsw'
p5389
sg5
S'catherine field'
p5390
ssS'3283'
p5391
(dp5392
g3
S'vic'
p5393
sg5
S'crossley'
p5394
ssS'2559'
p5395
(dp5396
g3
S'nsw'
p5397
sg5
S'blairmount'
p5398
ssS'6390'
p5399
(dp5400
g3
S'wa'
p5401
sg5
S'bannister'
p5402
ssS'6391'
p5403
(dp5404
g3
S'wa'
p5405
sg5
S'quindanning'
p5406
ssS'6396'
p5407
(dp5408
g3
S'wa'
p5409
sg5
S'frankland'
p5410
ssS'6397'
p5411
(dp5412
g3
S'wa'
p5413
sg5
S'rocky gully'
p5414
ssS'6394'
p5415
(dp5416
g3
S'wa'
p5417
sg5
S'beaufort river'
p5418
ssS'6395'
p5419
(dp5420
g3
S'wa'
p5421
sg5
S'cherry tree pool'
p5422
ssS'2396'
p5423
(dp5424
g3
S'nsw'
p5425
sg5
S'baradine'
p5426
ssS'2397'
p5427
(dp5428
g3
S'nsw'
p5429
sg5
S'bellata'
p5430
ssS'2395'
p5431
(dp5432
g3
S'nsw'
p5433
sg5
S'binnaway'
p5434
ssS'2390'
p5435
(dp5436
g3
S'nsw'
p5437
sg5
S'baan baa'
p5438
ssS'2398'
p5439
(dp5440
g3
S'nsw'
p5441
sg5
S'gurley'
p5442
ssS'2399'
p5443
(dp5444
g3
S'nsw'
p5445
sg5
S'biniguy'
p5446
ssS'5010'
p5447
(dp5448
g3
S'sa'
p5449
sg5
S'angle park'
p5450
ssS'5011'
p5451
(dp5452
g3
S'sa'
p5453
sg5
S'woodville'
p5454
ssS'5012'
p5455
(dp5456
g3
S'sa'
p5457
sg5
S'athol park'
p5458
ssS'5013'
p5459
(dp5460
g3
S'sa'
p5461
sg5
S'gillman'
p5462
ssS'5014'
p5463
(dp5464
g3
S'sa'
p5465
sg5
S'albert park'
p5466
ssS'5015'
p5467
(dp5468
g3
S'sa'
p5469
sg5
S'birkenhead'
p5470
ssS'5016'
p5471
(dp5472
g3
S'sa'
p5473
sg5
S'largs bay'
p5474
ssS'5017'
p5475
(dp5476
g3
S'sa'
p5477
sg5
S'osborne'
p5478
ssS'5018'
p5479
(dp5480
g3
S'sa'
p5481
sg5
S'north haven'
p5482
ssS'5019'
p5483
(dp5484
g3
S'sa'
p5485
sg5
S'exeter'
p5486
ssS'4891'
p5487
(dp5488
g3
S'qld'
p5489
sg5
S'karumba'
p5490
ssS'2773'
p5491
(dp5492
g3
S'nsw'
p5493
sg5
S'glenbrook'
p5494
ssS'2774'
p5495
(dp5496
g3
S'nsw'
p5497
sg5
S'blaxland'
p5498
ssS'2775'
p5499
(dp5500
g3
S'nsw'
p5501
sg5
S'central macdonald'
p5502
ssS'2776'
p5503
(dp5504
g3
S'nsw'
p5505
sg5
S'faulconbridge'
p5506
ssS'2777'
p5507
(dp5508
g3
S'nsw'
p5509
sg5
S'hawkesbury heights'
p5510
ssS'2803'
p5511
(dp5512
g3
S'nsw'
p5513
sg5
S'bendick murrell'
p5514
ssS'6490'
p5515
(dp5516
g3
S'wa'
p5517
sg5
S'burran rock'
p5518
ssS'2800'
p5519
(dp5520
g3
S'nsw'
p5521
sg5
S'belgravia'
p5522
ssS'6262'
p5523
(dp5524
g3
S'wa'
p5525
sg5
S'boorara brook'
p5526
ssS'4419'
p5527
(dp5528
g3
S'qld'
p5529
sg5
S'cockatoo'
p5530
ssS'4418'
p5531
(dp5532
g3
S'qld'
p5533
sg5
S'guluguba'
p5534
ssS'4417'
p5535
(dp5536
g3
S'qld'
p5537
sg5
S'noorindoo'
p5538
ssS'2806'
p5539
(dp5540
g3
S'nsw'
p5541
sg5
S'eugowra'
p5542
ssS'4415'
p5543
(dp5544
g3
S'qld'
p5545
sg5
S'columboola'
p5546
ssS'4271'
p5547
(dp5548
g3
S'qld'
p5549
sg5
S'eagle heights'
p5550
ssS'4412'
p5551
(dp5552
g3
S'qld'
p5553
sg5
S'brigalow'
p5554
ssS'4411'
p5555
(dp5556
g3
S'qld'
p5557
sg5
S'warra'
p5558
ssS'2807'
p5559
(dp5560
g3
S'nsw'
p5561
sg5
S'koorawatha'
p5562
ssS'2172'
p5563
(dp5564
g3
S'nsw'
p5565
sg5
S'pleasure point'
p5566
ssS'2173'
p5567
(dp5568
g3
S'nsw'
p5569
sg5
S'holsworthy'
p5570
ssS'2170'
p5571
(dp5572
g3
S'nsw'
p5573
sg5
S'casula'
p5574
ssS'2171'
p5575
(dp5576
g3
S'nsw'
p5577
sg5
S'cecil hills'
p5578
ssS'2176'
p5579
(dp5580
g3
S'nsw'
p5581
sg5
S'abbotsbury'
p5582
ssS'2177'
p5583
(dp5584
g3
S'nsw'
p5585
sg5
S'bonnyrigg'
p5586
ssS'6062'
p5587
(dp5588
g3
S'wa'
p5589
sg5
S'embleton'
p5590
ssS'2175'
p5591
(dp5592
g3
S'nsw'
p5593
sg5
S'horsley park'
p5594
ssS'2178'
p5595
(dp5596
g3
S'nsw'
p5597
sg5
S'cecil park'
p5598
ssS'2179'
p5599
(dp5600
g3
S'nsw'
p5601
sg5
S'austral'
p5602
ssS'6068'
p5603
(dp5604
g3
S'wa'
p5605
sg5
S'whiteman'
p5606
ssS'6069'
p5607
(dp5608
g3
S'wa'
p5609
sg5
S'aveley'
p5610
ssS'2604'
p5611
(dp5612
g3
S'act'
p5613
sg5
S'causeway'
p5614
ssS'2605'
p5615
(dp5616
g3
S'act'
p5617
sg5
S'curtin'
p5618
ssS'2606'
p5619
(dp5620
g3
S'act'
p5621
sg5
S'chifley'
p5622
ssS'2607'
p5623
(dp5624
g3
S'act'
p5625
sg5
S'farrer'
p5626
ssS'2600'
p5627
(dp5628
g3
S'act'
p5629
sg5
S'barton'
p5630
ssS'2601'
p5631
(dp5632
g3
S'act'
p5633
sg5
S'acton'
p5634
ssS'2602'
p5635
(dp5636
g3
S'act'
p5637
sg5
S'ainslie'
p5638
ssS'1420'
p5639
(dp5640
g3
S'nsw'
p5641
sg5
S'strawberry hills'
p5642
ssS'2608'
p5643
(dp5644
g3
S'act'
p5645
sg5
S'civic square'
p5646
ssS'2609'
p5647
(dp5648
g3
S'act'
p5649
sg5
S'canberra international airport'
p5650
ssS'3260'
p5651
(dp5652
g3
S'vic'
p5653
sg5
S'bookaar'
p5654
ssS'1422'
p5655
(dp5656
g3
S'nsw'
p5657
sg5
S'strawberry hills'
p5658
ssS'3265'
p5659
(dp5660
g3
S'vic'
p5661
sg5
S'boorcan'
p5662
ssS'3264'
p5663
(dp5664
g3
S'vic'
p5665
sg5
S'terang'
p5666
ssS'3267'
p5667
(dp5668
g3
S'vic'
p5669
sg5
S'scotts creek'
p5670
ssS'3266'
p5671
(dp5672
g3
S'vic'
p5673
sg5
S'bullaharre'
p5674
ssS'3269'
p5675
(dp5676
g3
S'vic'
p5677
sg5
S'port campbell'
p5678
ssS'5125'
p5679
(dp5680
g3
S'sa'
p5681
sg5
S'golden grove'
p5682
ssS'5126'
p5683
(dp5684
g3
S'sa'
p5685
sg5
S'fairview park'
p5686
ssS'5127'
p5687
(dp5688
g3
S'sa'
p5689
sg5
S'wynn vale'
p5690
ssS'5120'
p5691
(dp5692
g3
S'sa'
p5693
sg5
S'buckland park'
p5694
ssS'5121'
p5695
(dp5696
g3
S'sa'
p5697
sg5
S'macdonald park'
p5698
ssS'847'
p5699
(dp5700
g3
S'nt'
p5701
sg5
S'pine creek'
p5702
ssS'846'
p5703
(dp5704
g3
S'nt'
p5705
sg5
S'adelaide river'
p5706
ssS'845'
p5707
(dp5708
g3
S'nt'
p5709
sg5
S'batchelor'
p5710
ssS'3464'
p5711
(dp5712
g3
S'vic'
p5713
sg5
S'carisbrook'
p5714
ssS'3463'
p5715
(dp5716
g3
S'vic'
p5717
sg5
S'baringhup'
p5718
ssS'3462'
p5719
(dp5720
g3
S'vic'
p5721
sg5
S'green gully'
p5722
ssS'841'
p5723
(dp5724
g3
S'nt'
p5725
sg5
S'darwin river'
p5726
ssS'840'
p5727
(dp5728
g3
S'nt'
p5729
sg5
S'dundee beach'
p5730
ssS'3469'
p5731
(dp5732
g3
S'vic'
p5733
sg5
S'elmhurst'
p5734
ssS'3468'
p5735
(dp5736
g3
S'vic'
p5737
sg5
S'amphitheatre'
p5738
ssS'1429'
p5739
(dp5740
g3
S'nsw'
p5741
sg5
S'strawberry hills'
p5742
ssS'2406'
p5743
(dp5744
g3
S'nsw'
p5745
sg5
S'mungindi'
p5746
ssS'1193'
p5747
(dp5748
g3
S'nsw'
p5749
sg5
S'sydney'
p5750
ssS'7018'
p5751
(dp5752
g3
S'tas'
p5753
sg5
S'bellerive'
p5754
ssS'7019'
p5755
(dp5756
g3
S'tas'
p5757
sg5
S'clarendon vale'
p5758
ssS'7016'
p5759
(dp5760
g3
S'tas'
p5761
sg5
S'risdon vale'
p5762
ssS'7017'
p5763
(dp5764
g3
S'tas'
p5765
sg5
S'grasstree hill'
p5766
ssS'7015'
p5767
(dp5768
g3
S'tas'
p5769
sg5
S'geilston bay'
p5770
ssS'7012'
p5771
(dp5772
g3
S'tas'
p5773
sg5
S'collinsvale'
p5774
ssS'1192'
p5775
(dp5776
g3
S'nsw'
p5777
sg5
S'sydney'
p5778
ssS'7010'
p5779
(dp5780
g3
S'tas'
p5781
sg5
S'dowsing point'
p5782
ssS'7011'
p5783
(dp5784
g3
S'tas'
p5785
sg5
S'austins ferry'
p5786
ssS'5238'
p5787
(dp5788
g3
S'sa'
p5789
sg5
S'angas valley'
p5790
ssS'4275'
p5791
(dp5792
g3
S'qld'
p5793
sg5
S'benobble'
p5794
ssS'5231'
p5795
(dp5796
g3
S'sa'
p5797
sg5
S'chain of ponds'
p5798
ssS'5232'
p5799
(dp5800
g3
S'sa'
p5801
sg5
S'cudlee creek'
p5802
ssS'5233'
p5803
(dp5804
g3
S'sa'
p5805
sg5
S'forreston'
p5806
ssS'5234'
p5807
(dp5808
g3
S'sa'
p5809
sg5
S'birdwood'
p5810
ssS'5235'
p5811
(dp5812
g3
S'sa'
p5813
sg5
S'cromer'
p5814
ssS'5236'
p5815
(dp5816
g3
S'sa'
p5817
sg5
S'tungkillo'
p5818
ssS'5237'
p5819
(dp5820
g3
S'sa'
p5821
sg5
S'apamurra'
p5822
ssS'2587'
p5823
(dp5824
g3
S'nsw'
p5825
sg5
S'aurville'
p5826
ssS'2404'
p5827
(dp5828
g3
S'nsw'
p5829
sg5
S'bangheet'
p5830
ssS'6318'
p5831
(dp5832
g3
S'wa'
p5833
sg5
S'broomehill'
p5834
ssS'2586'
p5835
(dp5836
g3
S'nsw'
p5837
sg5
S'boorowa'
p5838
ssS'3070'
p5839
(dp5840
g3
S'vic'
p5841
sg5
S'northcote'
p5842
ssS'3071'
p5843
(dp5844
g3
S'vic'
p5845
sg5
S'thornbury'
p5846
ssS'3072'
p5847
(dp5848
g3
S'vic'
p5849
sg5
S'northland centre'
p5850
ssS'3073'
p5851
(dp5852
g3
S'vic'
p5853
sg5
S'keon park'
p5854
ssS'3074'
p5855
(dp5856
g3
S'vic'
p5857
sg5
S'thomastown'
p5858
ssS'3075'
p5859
(dp5860
g3
S'vic'
p5861
sg5
S'lalor'
p5862
ssS'3076'
p5863
(dp5864
g3
S'vic'
p5865
sg5
S'epping'
p5866
ssS'3078'
p5867
(dp5868
g3
S'vic'
p5869
sg5
S'alphington'
p5870
ssS'3079'
p5871
(dp5872
g3
S'vic'
p5873
sg5
S'ivanhoe'
p5874
ssS'1025'
p5875
(dp5876
g3
S'nsw'
p5877
sg5
S'sydney'
p5878
ssS'5345'
p5879
(dp5880
g3
S'sa'
p5881
sg5
S'barmera'
p5882
ssS'1027'
p5883
(dp5884
g3
S'nsw'
p5885
sg5
S'sydney'
p5886
ssS'1026'
p5887
(dp5888
g3
S'nsw'
p5889
sg5
S'sydney'
p5890
ssS'1021'
p5891
(dp5892
g3
S'nsw'
p5893
sg5
S'sydney'
p5894
ssS'1020'
p5895
(dp5896
g3
S'nsw'
p5897
sg5
S'sydney'
p5898
ssS'5342'
p5899
(dp5900
g3
S'sa'
p5901
sg5
S'monash'
p5902
ssS'1022'
p5903
(dp5904
g3
S'nsw'
p5905
sg5
S'sydney'
p5906
ssS'7162'
p5907
(dp5908
g3
S'tas'
p5909
sg5
S'birchs bay'
p5910
ssS'7163'
p5911
(dp5912
g3
S'tas'
p5913
sg5
S'flowerpot'
p5914
ssS'1800'
p5915
(dp5916
g3
S'nsw'
p5917
sg5
S'ashfield'
p5918
ssS'1029'
p5919
(dp5920
g3
S'nsw'
p5921
sg5
S'sydney'
p5922
ssS'1028'
p5923
(dp5924
g3
S'nsw'
p5925
sg5
S'sydney'
p5926
ssS'4365'
p5927
(dp5928
g3
S'qld'
p5929
sg5
S'leyburn'
p5930
ssS'4364'
p5931
(dp5932
g3
S'qld'
p5933
sg5
S'brookstead'
p5934
ssS'1209'
p5935
(dp5936
g3
S'nsw'
p5937
sg5
S'australia square'
p5938
ssS'1208'
p5939
(dp5940
g3
S'nsw'
p5941
sg5
S'haymarket'
p5942
ssS'4363'
p5943
(dp5944
g3
S'qld'
p5945
sg5
S'southbrook'
p5946
ssS'4362'
p5947
(dp5948
g3
S'qld'
p5949
sg5
S'allora'
p5950
ssS'8071'
p5951
(dp5952
g3
S'vic'
p5953
sg5
S'melbourne'
p5954
ssS'8070'
p5955
(dp5956
g3
S'vic'
p5957
sg5
S'melbourne'
p5958
ssS'1207'
p5959
(dp5960
g3
S'nsw'
p5961
sg5
S'sydney'
p5962
ssS'1206'
p5963
(dp5964
g3
S'nsw'
p5965
sg5
S'sydney'
p5966
ssS'1201'
p5967
(dp5968
g3
S'nsw'
p5969
sg5
S'sydney'
p5970
ssS'1200'
p5971
(dp5972
g3
S'nsw'
p5973
sg5
S'sydney'
p5974
ssS'1203'
p5975
(dp5976
g3
S'nsw'
p5977
sg5
S'sydney'
p5978
ssS'1202'
p5979
(dp5980
g3
S'nsw'
p5981
sg5
S'sydney'
p5982
ssS'1196'
p5983
(dp5984
g3
S'nsw'
p5985
sg5
S'sydney'
p5986
ssS'5641'
p5987
(dp5988
g3
S'sa'
p5989
sg5
S'barna'
p5990
ssS'5640'
p5991
(dp5992
g3
S'sa'
p5993
sg5
S'campoona'
p5994
ssS'5642'
p5995
(dp5996
g3
S'sa'
p5997
sg5
S'darke peak'
p5998
ssS'3108'
p5999
(dp6000
g3
S'vic'
p6001
sg5
S'doncaster'
p6002
ssS'3109'
p6003
(dp6004
g3
S'vic'
p6005
sg5
S'doncaster east'
p6006
ssS'3104'
p6007
(dp6008
g3
S'vic'
p6009
sg5
S'balwyn north'
p6010
ssS'3105'
p6011
(dp6012
g3
S'vic'
p6013
sg5
S'bulleen'
p6014
ssS'3106'
p6015
(dp6016
g3
S'vic'
p6017
sg5
S'templestowe'
p6018
ssS'3107'
p6019
(dp6020
g3
S'vic'
p6021
sg5
S'templestowe lower'
p6022
ssS'3101'
p6023
(dp6024
g3
S'vic'
p6025
sg5
S'cotham'
p6026
ssS'3102'
p6027
(dp6028
g3
S'vic'
p6029
sg5
S'kew east'
p6030
ssS'3103'
p6031
(dp6032
g3
S'vic'
p6033
sg5
S'balwyn'
p6034
ssS'1110'
p6035
(dp6036
g3
S'nsw'
p6037
sg5
S'sydney'
p6038
ssS'1113'
p6039
(dp6040
g3
S'nsw'
p6041
sg5
S'sydney'
p6042
ssS'1112'
p6043
(dp6044
g3
S'nsw'
p6045
sg5
S'sydney'
p6046
ssS'1115'
p6047
(dp6048
g3
S'nsw'
p6049
sg5
S'sydney'
p6050
ssS'1114'
p6051
(dp6052
g3
S'nsw'
p6053
sg5
S'sydney'
p6054
ssS'1117'
p6055
(dp6056
g3
S'nsw'
p6057
sg5
S'sydney'
p6058
ssS'1116'
p6059
(dp6060
g3
S'nsw'
p6061
sg5
S'sydney'
p6062
ssS'1119'
p6063
(dp6064
g3
S'nsw'
p6065
sg5
S'sydney'
p6066
ssS'1118'
p6067
(dp6068
g3
S'nsw'
p6069
sg5
S'sydney'
p6070
ssS'6332'
p6071
(dp6072
g3
S'wa'
p6073
sg5
S'albany'
p6074
ssS'4858'
p6075
(dp6076
g3
S'qld'
p6077
sg5
S'comoon loop'
p6078
ssS'5734'
p6079
(dp6080
g3
S'sa'
p6081
sg5
S'oodnadatta'
p6082
ssS'5731'
p6083
(dp6084
g3
S'sa'
p6085
sg5
S'coopers creek'
p6086
ssS'5730'
p6087
(dp6088
g3
S'sa'
p6089
sg5
S'beltana'
p6090
ssS'5733'
p6091
(dp6092
g3
S'sa'
p6093
sg5
S'farina'
p6094
ssS'5732'
p6095
(dp6096
g3
S'sa'
p6097
sg5
S'copley'
p6098
ssS'4855'
p6099
(dp6100
g3
S'qld'
p6101
sg5
S'daveson'
p6102
ssS'6468'
p6103
(dp6104
g3
S'wa'
p6105
sg5
S'goodlands'
p6106
ssS'4854'
p6107
(dp6108
g3
S'qld'
p6109
sg5
S'bilyana'
p6110
ssS'6959'
p6111
(dp6112
g3
S'wa'
p6113
sg5
S'fremantle'
p6114
ssS'6460'
p6115
(dp6116
g3
S'wa'
p6117
sg5
S'goomalling'
p6118
ssS'6338'
p6119
(dp6120
g3
S'wa'
p6121
sg5
S'amelup'
p6122
ssS'6462'
p6123
(dp6124
g3
S'wa'
p6125
sg5
S'hindmarsh'
p6126
ssS'6463'
p6127
(dp6128
g3
S'wa'
p6129
sg5
S'benjaberring'
p6130
ssS'6465'
p6131
(dp6132
g3
S'wa'
p6133
sg5
S'manmanning'
p6134
ssS'6466'
p6135
(dp6136
g3
S'wa'
p6137
sg5
S'cadoux'
p6138
ssS'4852'
p6139
(dp6140
g3
S'qld'
p6141
sg5
S'bingil bay'
p6142
ssS'6489'
p6143
(dp6144
g3
S'wa'
p6145
sg5
S'kununoppin'
p6146
ssS'4724'
p6147
(dp6148
g3
S'qld'
p6149
sg5
S'alpha'
p6150
ssS'4727'
p6151
(dp6152
g3
S'qld'
p6153
sg5
S'ilfracombe'
p6154
ssS'3922'
p6155
(dp6156
g3
S'vic'
p6157
sg5
S'cowes'
p6158
ssS'3923'
p6159
(dp6160
g3
S'vic'
p6161
sg5
S'rhyll'
p6162
ssS'3921'
p6163
(dp6164
g3
S'vic'
p6165
sg5
S'french island'
p6166
ssS'3926'
p6167
(dp6168
g3
S'vic'
p6169
sg5
S'balnarring'
p6170
ssS'3927'
p6171
(dp6172
g3
S'vic'
p6173
sg5
S'somers'
p6174
ssS'3925'
p6175
(dp6176
g3
S'vic'
p6177
sg5
S'cape woolamai'
p6178
ssS'6914'
p6179
(dp6180
g3
S'wa'
p6181
sg5
S'balcatta'
p6182
ssS'4721'
p6183
(dp6184
g3
S'qld'
p6185
sg5
S'argyll'
p6186
ssS'3928'
p6187
(dp6188
g3
S'vic'
p6189
sg5
S'main ridge'
p6190
ssS'3929'
p6191
(dp6192
g3
S'vic'
p6193
sg5
S'flinders'
p6194
ssS'4720'
p6195
(dp6196
g3
S'qld'
p6197
sg5
S'emerald'
p6198
ssS'6722'
p6199
(dp6200
g3
S'wa'
p6201
sg5
S'boodarie'
p6202
ssS'6721'
p6203
(dp6204
g3
S'wa'
p6205
sg5
S'indee'
p6206
ssS'6720'
p6207
(dp6208
g3
S'wa'
p6209
sg5
S'cossack'
p6210
ssS'4723'
p6211
(dp6212
g3
S'qld'
p6213
sg5
S'belcong'
p6214
ssS'6725'
p6215
(dp6216
g3
S'wa'
p6217
sg5
S'bilingurr'
p6218
ssS'6528'
p6219
(dp6220
g3
S'wa'
p6221
sg5
S'mount hill'
p6222
ssS'4722'
p6223
(dp6224
g3
S'qld'
p6225
sg5
S'buckland'
p6226
ssS'4370'
p6227
(dp6228
g3
S'qld'
p6229
sg5
S'allan'
p6230
ssS'4371'
p6231
(dp6232
g3
S'qld'
p6233
sg5
S'emu vale'
p6234
ssS'6915'
p6235
(dp6236
g3
S'wa'
p6237
sg5
S'mount hawthorn'
p6238
ssS'4376'
p6239
(dp6240
g3
S'qld'
p6241
sg5
S'thulimbah'
p6242
ssS'6487'
p6243
(dp6244
g3
S'wa'
p6245
sg5
S'north yelbeni'
p6246
ssS'3856'
p6247
(dp6248
g3
S'vic'
p6249
sg5
S'toongabbie'
p6250
ssS'3857'
p6251
(dp6252
g3
S'vic'
p6253
sg5
S'cowwarr'
p6254
ssS'3854'
p6255
(dp6256
g3
S'vic'
p6257
sg5
S'glengarry'
p6258
ssS'3852'
p6259
(dp6260
g3
S'vic'
p6261
sg5
S'east sale raaf'
p6262
ssS'3853'
p6263
(dp6264
g3
S'vic'
p6265
sg5
S'sale'
p6266
ssS'3850'
p6267
(dp6268
g3
S'vic'
p6269
sg5
S'giffard'
p6270
ssS'3851'
p6271
(dp6272
g3
S'vic'
p6273
sg5
S'airly'
p6274
ssS'4375'
p6275
(dp6276
g3
S'qld'
p6277
sg5
S'cottonvale'
p6278
ssS'3858'
p6279
(dp6280
g3
S'vic'
p6281
sg5
S'dawson'
p6282
ssS'3859'
p6283
(dp6284
g3
S'vic'
p6285
sg5
S'maffra west upper'
p6286
ssS'4822'
p6287
(dp6288
g3
S'qld'
p6289
sg5
S'albion'
p6290
ssS'6090'
p6291
(dp6292
g3
S'wa'
p6293
sg5
S'malaga'
p6294
ssS'6917'
p6295
(dp6296
g3
S'wa'
p6297
sg5
S'osborne park'
p6298
ssS'4823'
p6299
(dp6300
g3
S'qld'
p6301
sg5
S'carpentaria'
p6302
ssS'5089'
p6303
(dp6304
g3
S'sa'
p6305
sg5
S'highbury'
p6306
ssS'6910'
p6307
(dp6308
g3
S'wa'
p6309
sg5
S'claremont'
p6310
ssS'2289'
p6311
(dp6312
g3
S'nsw'
p6313
sg5
S'adamstown'
p6314
ssS'6385'
p6315
(dp6316
g3
S'wa'
p6317
sg5
S'kwolyin'
p6318
ssS'6384'
p6319
(dp6320
g3
S'wa'
p6321
sg5
S'pantapin'
p6322
ssS'3678'
p6323
(dp6324
g3
S'vic'
p6325
sg5
S'bobinawarrah'
p6326
ssS'6386'
p6327
(dp6328
g3
S'wa'
p6329
sg5
S'shackleton'
p6330
ssS'4558'
p6331
(dp6332
g3
S'qld'
p6333
sg5
S'cotton tree'
p6334
ssS'4559'
p6335
(dp6336
g3
S'qld'
p6337
sg5
S'diddillibah'
p6338
ssS'3672'
p6339
(dp6340
g3
S'vic'
p6341
sg5
S'benalla'
p6342
ssS'3673'
p6343
(dp6344
g3
S'vic'
p6345
sg5
S'broken creek'
p6346
ssS'3670'
p6347
(dp6348
g3
S'vic'
p6349
sg5
S'baddaginnie'
p6350
ssS'3671'
p6351
(dp6352
g3
S'vic'
p6353
sg5
S'benalla'
p6354
ssS'3676'
p6355
(dp6356
g3
S'vic'
p6357
sg5
S'wangaratta'
p6358
ssS'3677'
p6359
(dp6360
g3
S'vic'
p6361
sg5
S'appin park'
p6362
ssS'4550'
p6363
(dp6364
g3
S'qld'
p6365
sg5
S'landsborough'
p6366
ssS'3675'
p6367
(dp6368
g3
S'vic'
p6369
sg5
S'boweya'
p6370
ssS'4821'
p6371
(dp6372
g3
S'qld'
p6373
sg5
S'dutton river'
p6374
ssS'2541'
p6375
(dp6376
g3
S'nsw'
p6377
sg5
S'bangalee'
p6378
ssS'2540'
p6379
(dp6380
g3
S'nsw'
p6381
sg5
S'bamarang'
p6382
ssS'2546'
p6383
(dp6384
g3
S'nsw'
p6385
sg5
S'akolele'
p6386
ssS'2545'
p6387
(dp6388
g3
S'nsw'
p6389
sg5
S'belowra'
p6390
ssS'1455'
p6391
(dp6392
g3
S'nsw'
p6393
sg5
S'botany'
p6394
ssS'2549'
p6395
(dp6396
g3
S'nsw'
p6397
sg5
S'bald hills'
p6398
ssS'2548'
p6399
(dp6400
g3
S'nsw'
p6401
sg5
S'berrambool'
p6402
ssS'2381'
p6403
(dp6404
g3
S'nsw'
p6405
sg5
S'breeza'
p6406
ssS'2380'
p6407
(dp6408
g3
S'nsw'
p6409
sg5
S'blue vale'
p6410
ssS'2382'
p6411
(dp6412
g3
S'nsw'
p6413
sg5
S'boggabri'
p6414
ssS'2387'
p6415
(dp6416
g3
S'nsw'
p6417
sg5
S'bulyeroi'
p6418
ssS'2386'
p6419
(dp6420
g3
S'nsw'
p6421
sg5
S'burren junction'
p6422
ssS'2388'
p6423
(dp6424
g3
S'nsw'
p6425
sg5
S'boolcarroll'
p6426
ssS'3580'
p6427
(dp6428
g3
S'vic'
p6429
sg5
S'koondrook'
p6430
ssS'3581'
p6431
(dp6432
g3
S'vic'
p6433
sg5
S'lake charm'
p6434
ssS'5001'
p6435
(dp6436
g3
S'sa'
p6437
sg5
S'adelaide'
p6438
ssS'5000'
p6439
(dp6440
g3
S'sa'
p6441
sg5
S'adelaide'
p6442
ssS'5007'
p6443
(dp6444
g3
S'sa'
p6445
sg5
S'bowden'
p6446
ssS'5006'
p6447
(dp6448
g3
S'sa'
p6449
sg5
S'north adelaide'
p6450
ssS'5005'
p6451
(dp6452
g3
S'sa'
p6453
sg5
S'adelaide university'
p6454
ssS'3588'
p6455
(dp6456
g3
S'vic'
p6457
sg5
S'woorinen south'
p6458
ssS'3589'
p6459
(dp6460
g3
S'vic'
p6461
sg5
S'woorinen'
p6462
ssS'5009'
p6463
(dp6464
g3
S'sa'
p6465
sg5
S'allenby gardens'
p6466
ssS'5008'
p6467
(dp6468
g3
S'sa'
p6469
sg5
S'croydon'
p6470
ssS'2767'
p6471
(dp6472
g3
S'nsw'
p6473
sg5
S'doonside'
p6474
ssS'2766'
p6475
(dp6476
g3
S'nsw'
p6477
sg5
S'eastern creek'
p6478
ssS'2765'
p6479
(dp6480
g3
S'nsw'
p6481
sg5
S'berkshire park'
p6482
ssS'7908'
p6483
(dp6484
g3
S'tas'
p6485
sg5
S'launceston'
p6486
ssS'7909'
p6487
(dp6488
g3
S'tas'
p6489
sg5
S'launceston'
p6490
ssS'7301'
p6491
(dp6492
g3
S'tas'
p6493
sg5
S'bishopsbourne'
p6494
ssS'7901'
p6495
(dp6496
g3
S'tas'
p6497
sg5
S'launceston'
p6498
ssS'7902'
p6499
(dp6500
g3
S'tas'
p6501
sg5
S'launceston'
p6502
ssS'7903'
p6503
(dp6504
g3
S'tas'
p6505
sg5
S'launceston'
p6506
ssS'7904'
p6507
(dp6508
g3
S'tas'
p6509
sg5
S'launceston'
p6510
ssS'7905'
p6511
(dp6512
g3
S'tas'
p6513
sg5
S'launceston'
p6514
ssS'7906'
p6515
(dp6516
g3
S'tas'
p6517
sg5
S'launceston'
p6518
ssS'7907'
p6519
(dp6520
g3
S'tas'
p6521
sg5
S'launceston'
p6522
ssS'6271'
p6523
(dp6524
g3
S'wa'
p6525
sg5
S'capel'
p6526
ssS'4428'
p6527
(dp6528
g3
S'qld'
p6529
sg5
S'pickanjinnie'
p6530
ssS'1848'
p6531
(dp6532
g3
S'nsw'
p6533
sg5
S'guildford'
p6534
ssS'906'
p6535
(dp6536
g3
S'nt'
p6537
sg5
S'winnellie'
p6538
ssS'907'
p6539
(dp6540
g3
S'nt'
p6541
sg5
S'winnellie'
p6542
ssS'4422'
p6543
(dp6544
g3
S'qld'
p6545
sg5
S'coomrith'
p6546
ssS'4423'
p6547
(dp6548
g3
S'qld'
p6549
sg5
S'glenmorgan'
p6550
ssS'4420'
p6551
(dp6552
g3
S'qld'
p6553
sg5
S'broadmere'
p6554
ssS'4421'
p6555
(dp6556
g3
S'qld'
p6557
sg5
S'goranba'
p6558
ssS'4426'
p6559
(dp6560
g3
S'qld'
p6561
sg5
S'jackson'
p6562
ssS'4427'
p6563
(dp6564
g3
S'qld'
p6565
sg5
S'clifford'
p6566
ssS'4424'
p6567
(dp6568
g3
S'qld'
p6569
sg5
S'drillham'
p6570
ssS'4425'
p6571
(dp6572
g3
S'qld'
p6573
sg5
S'bogandilla'
p6574
ssS'6076'
p6575
(dp6576
g3
S'wa'
p6577
sg5
S'bickley'
p6578
ssS'6074'
p6579
(dp6580
g3
S'wa'
p6581
sg5
S'sawyers valley'
p6582
ssS'6073'
p6583
(dp6584
g3
S'wa'
p6585
sg5
S'mundaring'
p6586
ssS'1188'
p6587
(dp6588
g3
S'nsw'
p6589
sg5
S'sydney'
p6590
ssS'6071'
p6591
(dp6592
g3
S'wa'
p6593
sg5
S'glen forrest'
p6594
ssS'6070'
p6595
(dp6596
g3
S'wa'
p6597
sg5
S'darlington'
p6598
ssS'2165'
p6599
(dp6600
g3
S'nsw'
p6601
sg5
S'fairfield'
p6602
ssS'2164'
p6603
(dp6604
g3
S'nsw'
p6605
sg5
S'smithfield'
p6606
ssS'2167'
p6607
(dp6608
g3
S'nsw'
p6609
sg5
S'glenfield'
p6610
ssS'2166'
p6611
(dp6612
g3
S'nsw'
p6613
sg5
S'cabramatta'
p6614
ssS'2161'
p6615
(dp6616
g3
S'nsw'
p6617
sg5
S'guildford'
p6618
ssS'2160'
p6619
(dp6620
g3
S'nsw'
p6621
sg5
S'merrylands'
p6622
ssS'2163'
p6623
(dp6624
g3
S'nsw'
p6625
sg5
S'carramar'
p6626
ssS'2162'
p6627
(dp6628
g3
S'nsw'
p6629
sg5
S'chester hill'
p6630
ssS'2617'
p6631
(dp6632
g3
S'act'
p6633
sg5
S'belconnen'
p6634
ssS'2616'
p6635
(dp6636
g3
S'act'
p6637
sg5
S'belconnen'
p6638
ssS'2615'
p6639
(dp6640
g3
S'act'
p6641
sg5
S'charnwood'
p6642
ssS'2614'
p6643
(dp6644
g3
S'act'
p6645
sg5
S'aranda'
p6646
ssS'2612'
p6647
(dp6648
g3
S'act'
p6649
sg5
S'braddon'
p6650
ssS'2611'
p6651
(dp6652
g3
S'nsw'
p6653
sg5
S'bimberi'
p6654
ssS'6322'
p6655
(dp6656
g3
S'wa'
p6657
sg5
S'tenterden'
p6658
ssS'2619'
p6659
(dp6660
g3
S'nsw'
p6661
sg5
S'jerrabomberra'
p6662
ssS'2618'
p6663
(dp6664
g3
S'nsw'
p6665
sg5
S'nanima'
p6666
ssS'1189'
p6667
(dp6668
g3
S'nsw'
p6669
sg5
S'sydney'
p6670
ssS'5139'
p6671
(dp6672
g3
S'sa'
p6673
sg5
S'forest range'
p6674
ssS'5138'
p6675
(dp6676
g3
S'sa'
p6677
sg5
S'basket range'
p6678
ssS'3294'
p6679
(dp6680
g3
S'vic'
p6681
sg5
S'dunkeld'
p6682
ssS'5136'
p6683
(dp6684
g3
S'sa'
p6685
sg5
S'norton summit'
p6686
ssS'5134'
p6687
(dp6688
g3
S'sa'
p6689
sg5
S'cherryville'
p6690
ssS'5133'
p6691
(dp6692
g3
S'sa'
p6693
sg5
S'inglewood'
p6694
ssS'5132'
p6695
(dp6696
g3
S'sa'
p6697
sg5
S'paracombe'
p6698
ssS'5131'
p6699
(dp6700
g3
S'sa'
p6701
sg5
S'houghton'
p6702
ssS'3293'
p6703
(dp6704
g3
S'vic'
p6705
sg5
S'glenthompson'
p6706
ssS'854'
p6707
(dp6708
g3
S'nt'
p6709
sg5
S'borroloola'
p6710
ssS'3453'
p6711
(dp6712
g3
S'vic'
p6713
sg5
S'harcourt'
p6714
ssS'3450'
p6715
(dp6716
g3
S'vic'
p6717
sg5
S'castlemaine'
p6718
ssS'3451'
p6719
(dp6720
g3
S'vic'
p6721
sg5
S'barkers creek'
p6722
ssS'850'
p6723
(dp6724
g3
S'nt'
p6725
sg5
S'katherine'
p6726
ssS'851'
p6727
(dp6728
g3
S'nt'
p6729
sg5
S'katherine'
p6730
ssS'852'
p6731
(dp6732
g3
S'nt'
p6733
sg5
S'beswick'
p6734
ssS'3458'
p6735
(dp6736
g3
S'vic'
p6737
sg5
S'barrys reef'
p6738
ssS'5083'
p6739
(dp6740
g3
S'sa'
p6741
sg5
S'broadview'
p6742
ssS'7009'
p6743
(dp6744
g3
S'tas'
p6745
sg5
S'derwent park'
p6746
ssS'7008'
p6747
(dp6748
g3
S'tas'
p6749
sg5
S'lenah valley'
p6750
ssS'7001'
p6751
(dp6752
g3
S'tas'
p6753
sg5
S'hobart'
p6754
ssS'7000'
p6755
(dp6756
g3
S'tas'
p6757
sg5
S'glebe'
p6758
ssS'7002'
p6759
(dp6760
g3
S'tas'
p6761
sg5
S'north hobart'
p6762
ssS'7005'
p6763
(dp6764
g3
S'tas'
p6765
sg5
S'dynnyrne'
p6766
ssS'7004'
p6767
(dp6768
g3
S'tas'
p6769
sg5
S'battery point'
p6770
ssS'7007'
p6771
(dp6772
g3
S'tas'
p6773
sg5
S'mount nelson'
p6774
ssS'7006'
p6775
(dp6776
g3
S'tas'
p6777
sg5
S'sandy bay'
p6778
ssS'5223'
p6779
(dp6780
g3
S'sa'
p6781
sg5
S'bay of shoals'
p6782
ssS'5222'
p6783
(dp6784
g3
S'sa'
p6785
sg5
S'american beach'
p6786
ssS'5221'
p6787
(dp6788
g3
S'sa'
p6789
sg5
S'american river'
p6790
ssS'4811'
p6791
(dp6792
g3
S'qld'
p6793
sg5
S'cluden'
p6794
ssS'7175'
p6795
(dp6796
g3
S'tas'
p6797
sg5
S'bream creek'
p6798
ssS'3062'
p6799
(dp6800
g3
S'vic'
p6801
sg5
S'somerton'
p6802
ssS'7177'
p6803
(dp6804
g3
S'tas'
p6805
sg5
S'boomer bay'
p6806
ssS'3060'
p6807
(dp6808
g3
S'vic'
p6809
sg5
S'fawkner'
p6810
ssS'3067'
p6811
(dp6812
g3
S'vic'
p6813
sg5
S'abbotsford'
p6814
ssS'7170'
p6815
(dp6816
g3
S'tas'
p6817
sg5
S'acton park'
p6818
ssS'7173'
p6819
(dp6820
g3
S'tas'
p6821
sg5
S'carlton'
p6822
ssS'3064'
p6823
(dp6824
g3
S'vic'
p6825
sg5
S'craigieburn'
p6826
ssS'3068'
p6827
(dp6828
g3
S'vic'
p6829
sg5
S'clifton hill'
p6830
ssS'7179'
p6831
(dp6832
g3
S'tas'
p6833
sg5
S'eaglehawk neck'
p6834
ssS'7178'
p6835
(dp6836
g3
S'tas'
p6837
sg5
S'murdunna'
p6838
ssS'5357'
p6839
(dp6840
g3
S'sa'
p6841
sg5
S'blanchetown'
p6842
ssS'5356'
p6843
(dp6844
g3
S'sa'
p6845
sg5
S'annadale'
p6846
ssS'5355'
p6847
(dp6848
g3
S'sa'
p6849
sg5
S'daveyston'
p6850
ssS'5354'
p6851
(dp6852
g3
S'sa'
p6853
sg5
S'bakara'
p6854
ssS'5353'
p6855
(dp6856
g3
S'sa'
p6857
sg5
S'angaston'
p6858
ssS'5352'
p6859
(dp6860
g3
S'sa'
p6861
sg5
S'bethany'
p6862
ssS'5351'
p6863
(dp6864
g3
S'sa'
p6865
sg5
S'altona'
p6866
ssS'5350'
p6867
(dp6868
g3
S'sa'
p6869
sg5
S'rosedale'
p6870
ssS'1182'
p6871
(dp6872
g3
S'nsw'
p6873
sg5
S'sydney'
p6874
ssS'4310'
p6875
(dp6876
g3
S'qld'
p6877
sg5
S'allandale'
p6878
ssS'4311'
p6879
(dp6880
g3
S'qld'
p6881
sg5
S'atkinsons dam'
p6882
ssS'4312'
p6883
(dp6884
g3
S'qld'
p6885
sg5
S'bryden'
p6886
ssS'5086'
p6887
(dp6888
g3
S'sa'
p6889
sg5
S'gilles plains'
p6890
ssS'3333'
p6891
(dp6892
g3
S'vic'
p6893
sg5
S'bamganie'
p6894
ssS'3332'
p6895
(dp6896
g3
S'vic'
p6897
sg5
S'lethbridge'
p6898
ssS'3116'
p6899
(dp6900
g3
S'vic'
p6901
sg5
S'chirnside park'
p6902
ssS'3115'
p6903
(dp6904
g3
S'vic'
p6905
sg5
S'wonga park'
p6906
ssS'3114'
p6907
(dp6908
g3
S'vic'
p6909
sg5
S'park orchards'
p6910
ssS'3113'
p6911
(dp6912
g3
S'vic'
p6913
sg5
S'north warrandyte'
p6914
ssS'3111'
p6915
(dp6916
g3
S'vic'
p6917
sg5
S'donvale'
p6918
ssS'6415'
p6919
(dp6920
g3
S'wa'
p6921
sg5
S'goomarin'
p6922
ssS'1470'
p6923
(dp6924
g3
S'nsw'
p6925
sg5
S'drummoyne'
p6926
ssS'3330'
p6927
(dp6928
g3
S'vic'
p6929
sg5
S'rokewood'
p6930
ssS'1476'
p6931
(dp6932
g3
S'nsw'
p6933
sg5
S'marrickville'
p6934
ssS'1475'
p6935
(dp6936
g3
S'nsw'
p6937
sg5
S'marrickville'
p6938
ssS'1495'
p6939
(dp6940
g3
S'nsw'
p6941
sg5
S'caringbah'
p6942
ssS'1181'
p6943
(dp6944
g3
S'nsw'
p6945
sg5
S'sydney'
p6946
ssS'1300'
p6947
(dp6948
g3
S'nsw'
p6949
sg5
S'darlinghurst'
p6950
ssS'4228'
p6951
(dp6952
g3
S'qld'
p6953
sg5
S'tallebudgera'
p6954
ssS'4229'
p6955
(dp6956
g3
S'qld'
p6957
sg5
S'bond university'
p6958
ssS'4224'
p6959
(dp6960
g3
S'qld'
p6961
sg5
S'tugun'
p6962
ssS'2590'
p6963
(dp6964
g3
S'nsw'
p6965
sg5
S'bethungra'
p6966
ssS'4226'
p6967
(dp6968
g3
S'qld'
p6969
sg5
S'clear island waters'
p6970
ssS'4227'
p6971
(dp6972
g3
S'qld'
p6973
sg5
S'reedy creek'
p6974
ssS'4220'
p6975
(dp6976
g3
S'qld'
p6977
sg5
S'burleigh heads'
p6978
ssS'4221'
p6979
(dp6980
g3
S'qld'
p6981
sg5
S'elanora'
p6982
ssS'4223'
p6983
(dp6984
g3
S'qld'
p6985
sg5
S'currumbin'
p6986
ssS'6479'
p6987
(dp6988
g3
S'wa'
p6989
sg5
S'barbalin'
p6990
ssS'5582'
p6991
(dp6992
g3
S'sa'
p6993
sg5
S'port giles'
p6994
ssS'5583'
p6995
(dp6996
g3
S'sa'
p6997
sg5
S'coobowie'
p6998
ssS'5580'
p6999
(dp7000
g3
S'sa'
p7001
sg5
S'curramulka'
p7002
ssS'5581'
p7003
(dp7004
g3
S'sa'
p7005
sg5
S'port vincent'
p7006
ssS'6473'
p7007
(dp7008
g3
S'wa'
p7009
sg5
S'north wialki'
p7010
ssS'6472'
p7011
(dp7012
g3
S'wa'
p7013
sg5
S'beacon'
p7014
ssS'5039'
p7015
(dp7016
g3
S'sa'
p7017
sg5
S'clarence gardens'
p7018
ssS'6477'
p7019
(dp7020
g3
S'wa'
p7021
sg5
S'bencubbin'
p7022
ssS'6476'
p7023
(dp7024
g3
S'wa'
p7025
sg5
S'gabbin'
p7026
ssS'6475'
p7027
(dp7028
g3
S'wa'
p7029
sg5
S'badgerin rock'
p7030
ssS'6844'
p7031
(dp7032
g3
S'wa'
p7033
sg5
S'perth'
p7034
ssS'6328'
p7035
(dp7036
g3
S'wa'
p7037
sg5
S'cheynes'
p7038
ssS'6845'
p7039
(dp7040
g3
S'wa'
p7041
sg5
S'perth'
p7042
ssS'5034'
p7043
(dp7044
g3
S'sa'
p7045
sg5
S'clarence park'
p7046
ssS'1700'
p7047
(dp7048
g3
S'nsw'
p7049
sg5
S'ermington'
p7050
ssS'6072'
p7051
(dp7052
g3
S'wa'
p7053
sg5
S'mahogany creek'
p7054
ssS'3939'
p7055
(dp7056
g3
S'vic'
p7057
sg5
S'boneo'
p7058
ssS'3938'
p7059
(dp7060
g3
S'vic'
p7061
sg5
S'mccrae'
p7062
ssS'3934'
p7063
(dp7064
g3
S'vic'
p7065
sg5
S'mount martha'
p7066
ssS'3937'
p7067
(dp7068
g3
S'vic'
p7069
sg5
S'red hill'
p7070
ssS'3936'
p7071
(dp7072
g3
S'vic'
p7073
sg5
S'arthurs seat'
p7074
ssS'3931'
p7075
(dp7076
g3
S'vic'
p7077
sg5
S'mornington'
p7078
ssS'3930'
p7079
(dp7080
g3
S'vic'
p7081
sg5
S'kunyung'
p7082
ssS'3933'
p7083
(dp7084
g3
S'vic'
p7085
sg5
S'moorooduc'
p7086
ssS'6718'
p7087
(dp7088
g3
S'wa'
p7089
sg5
S'roebourne'
p7090
ssS'6716'
p7091
(dp7092
g3
S'wa'
p7093
sg5
S'fortescue'
p7094
ssS'6714'
p7095
(dp7096
g3
S'wa'
p7097
sg5
S'antonymyre'
p7098
ssS'6712'
p7099
(dp7100
g3
S'wa'
p7101
sg5
S'barrow island'
p7102
ssS'6713'
p7103
(dp7104
g3
S'wa'
p7105
sg5
S'dampier'
p7106
ssS'6710'
p7107
(dp7108
g3
S'wa'
p7109
sg5
S'cane'
p7110
ssS'6711'
p7111
(dp7112
g3
S'wa'
p7113
sg5
S'thevenard island'
p7114
ssS'6762'
p7115
(dp7116
g3
S'wa'
p7117
sg5
S'telfer'
p7118
ssS'4130'
p7119
(dp7120
g3
S'qld'
p7121
sg5
S'carbrook'
p7122
ssS'4131'
p7123
(dp7124
g3
S'qld'
p7125
sg5
S'loganlea'
p7126
ssS'4132'
p7127
(dp7128
g3
S'qld'
p7129
sg5
S'crestmead'
p7130
ssS'4133'
p7131
(dp7132
g3
S'qld'
p7133
sg5
S'chambers flat'
p7134
ssS'4313'
p7135
(dp7136
g3
S'qld'
p7137
sg5
S'biarra'
p7138
ssS'3840'
p7139
(dp7140
g3
S'vic'
p7141
sg5
S'driffield'
p7142
ssS'5690'
p7143
(dp7144
g3
S'sa'
p7145
sg5
S'bookabie'
p7146
ssS'3842'
p7147
(dp7148
g3
S'vic'
p7149
sg5
S'churchill'
p7150
ssS'3844'
p7151
(dp7152
g3
S'vic'
p7153
sg5
S'blackwarry'
p7154
ssS'3847'
p7155
(dp7156
g3
S'vic'
p7157
sg5
S'hiamdale'
p7158
ssS'6324'
p7159
(dp7160
g3
S'wa'
p7161
sg5
S'denbarker'
p7162
ssS'3665'
p7163
(dp7164
g3
S'vic'
p7165
sg5
S'locksley'
p7166
ssS'3664'
p7167
(dp7168
g3
S'vic'
p7169
sg5
S'avenel'
p7170
ssS'3666'
p7171
(dp7172
g3
S'vic'
p7173
sg5
S'balmattum'
p7174
ssS'3661'
p7175
(dp7176
g3
S'vic'
p7177
sg5
S'seymour'
p7178
ssS'3660'
p7179
(dp7180
g3
S'vic'
p7181
sg5
S'caveat'
p7182
ssS'3663'
p7183
(dp7184
g3
S'vic'
p7185
sg5
S'mangalore'
p7186
ssS'2050'
p7187
(dp7188
g3
S'nsw'
p7189
sg5
S'camperdown'
p7190
ssS'2280'
p7191
(dp7192
g3
S'nsw'
p7193
sg5
S'belmont'
p7194
ssS'2281'
p7195
(dp7196
g3
S'nsw'
p7197
sg5
S'blacksmiths'
p7198
ssS'2282'
p7199
(dp7200
g3
S'nsw'
p7201
sg5
S'eleebana'
p7202
ssS'2283'
p7203
(dp7204
g3
S'nsw'
p7205
sg5
S'arcadia vale'
p7206
ssS'3669'
p7207
(dp7208
g3
S'vic'
p7209
sg5
S'boho'
p7210
ssS'2285'
p7211
(dp7212
g3
S'nsw'
p7213
sg5
S'cameron park'
p7214
ssS'2286'
p7215
(dp7216
g3
S'nsw'
p7217
sg5
S'holmesville'
p7218
ssS'2287'
p7219
(dp7220
g3
S'nsw'
p7221
sg5
S'birmingham gardens'
p7222
ssS'4828'
p7223
(dp7224
g3
S'qld'
p7225
sg5
S'camooweal'
p7226
ssS'2578'
p7227
(dp7228
g3
S'nsw'
p7229
sg5
S'bundanoon'
p7230
ssS'2579'
p7231
(dp7232
g3
S'nsw'
p7233
sg5
S'big hill'
p7234
ssS'2576'
p7235
(dp7236
g3
S'nsw'
p7237
sg5
S'bong bong'
p7238
ssS'2577'
p7239
(dp7240
g3
S'nsw'
p7241
sg5
S'avoca'
p7242
ssS'2574'
p7243
(dp7244
g3
S'nsw'
p7245
sg5
S'avon'
p7246
ssS'2575'
p7247
(dp7248
g3
S'nsw'
p7249
sg5
S'alpine'
p7250
ssS'2572'
p7251
(dp7252
g3
S'nsw'
p7253
sg5
S'lakesland'
p7254
ssS'2573'
p7255
(dp7256
g3
S'nsw'
p7257
sg5
S'tahmoor'
p7258
ssS'2570'
p7259
(dp7260
g3
S'nsw'
p7261
sg5
S'belimbla park'
p7262
ssS'2571'
p7263
(dp7264
g3
S'nsw'
p7265
sg5
S'balmoral'
p7266
ssS'2059'
p7267
(dp7268
g3
S'nsw'
p7269
sg5
S'north sydney'
p7270
ssS'2379'
p7271
(dp7272
g3
S'nsw'
p7273
sg5
S'goolhi'
p7274
ssS'4461'
p7275
(dp7276
g3
S'qld'
p7277
sg5
S'muckadilla'
p7278
ssS'2370'
p7279
(dp7280
g3
S'nsw'
p7281
sg5
S'bald nob'
p7282
ssS'2371'
p7283
(dp7284
g3
S'nsw'
p7285
sg5
S'capoompeta'
p7286
ssS'2372'
p7287
(dp7288
g3
S'nsw'
p7289
sg5
S'back creek'
p7290
ssS'2594'
p7291
(dp7292
g3
S'nsw'
p7293
sg5
S'berthong'
p7294
ssS'3591'
p7295
(dp7296
g3
S'vic'
p7297
sg5
S'vinifera'
p7298
ssS'3590'
p7299
(dp7300
g3
S'vic'
p7301
sg5
S'beverford'
p7302
ssS'3597'
p7303
(dp7304
g3
S'vic'
p7305
sg5
S'kenley'
p7306
ssS'3596'
p7307
(dp7308
g3
S'vic'
p7309
sg5
S'miralie'
p7310
ssS'5038'
p7311
(dp7312
g3
S'sa'
p7313
sg5
S'camden park'
p7314
ssS'3594'
p7315
(dp7316
g3
S'vic'
p7317
sg5
S'nyah'
p7318
ssS'5037'
p7319
(dp7320
g3
S'sa'
p7321
sg5
S'glandore'
p7322
ssS'3599'
p7323
(dp7324
g3
S'vic'
p7325
sg5
S'boundary bend'
p7326
ssS'5035'
p7327
(dp7328
g3
S'sa'
p7329
sg5
S'ashford'
p7330
ssS'5032'
p7331
(dp7332
g3
S'sa'
p7333
sg5
S'brooklyn park'
p7334
ssS'5033'
p7335
(dp7336
g3
S'sa'
p7337
sg5
S'cowandilla'
p7338
ssS'5031'
p7339
(dp7340
g3
S'sa'
p7341
sg5
S'mile end'
p7342
ssS'1875'
p7343
(dp7344
g3
S'nsw'
p7345
sg5
S'moorebank'
p7346
ssS'1871'
p7347
(dp7348
g3
S'nsw'
p7349
sg5
S'liverpool'
p7350
ssS'7913'
p7351
(dp7352
g3
S'tas'
p7353
sg5
S'launceston'
p7354
ssS'7912'
p7355
(dp7356
g3
S'tas'
p7357
sg5
S'launceston'
p7358
ssS'7911'
p7359
(dp7360
g3
S'tas'
p7361
sg5
S'launceston'
p7362
ssS'7910'
p7363
(dp7364
g3
S'tas'
p7365
sg5
S'launceston'
p7366
ssS'7914'
p7367
(dp7368
g3
S'tas'
p7369
sg5
S'launceston'
p7370
ssS'6042'
p7371
(dp7372
g3
S'wa'
p7373
sg5
S'seabird'
p7374
ssS'6632'
p7375
(dp7376
g3
S'wa'
p7377
sg5
S'ambania'
p7378
ssS'6288'
p7379
(dp7380
g3
S'wa'
p7381
sg5
S'alexandra bridge'
p7382
ssS'6989'
p7383
(dp7384
g3
S'wa'
p7385
sg5
S'maddington'
p7386
ssS'6043'
p7387
(dp7388
g3
S'wa'
p7389
sg5
S'breton bay'
p7390
ssS'6284'
p7391
(dp7392
g3
S'wa'
p7393
sg5
S'baudin'
p7394
ssS'6285'
p7395
(dp7396
g3
S'wa'
p7397
sg5
S'bramley'
p7398
ssS'6286'
p7399
(dp7400
g3
S'wa'
p7401
sg5
S'boranup'
p7402
ssS'6280'
p7403
(dp7404
g3
S'wa'
p7405
sg5
S'abba river'
p7406
ssS'6281'
p7407
(dp7408
g3
S'wa'
p7409
sg5
S'dunsborough'
p7410
ssS'6282'
p7411
(dp7412
g3
S'wa'
p7413
sg5
S'yallingup'
p7414
ssS'2118'
p7415
(dp7416
g3
S'nsw'
p7417
sg5
S'carlingford'
p7418
ssS'2119'
p7419
(dp7420
g3
S'nsw'
p7421
sg5
S'beecroft'
p7422
ssS'6041'
p7423
(dp7424
g3
S'wa'
p7425
sg5
S'caraban'
p7426
ssS'6044'
p7427
(dp7428
g3
S'wa'
p7429
sg5
S'karakin'
p7430
ssS'2110'
p7431
(dp7432
g3
S'nsw'
p7433
sg5
S'hunters hill'
p7434
ssS'2111'
p7435
(dp7436
g3
S'nsw'
p7437
sg5
S'boronia park'
p7438
ssS'2112'
p7439
(dp7440
g3
S'nsw'
p7441
sg5
S'denistone east'
p7442
ssS'2113'
p7443
(dp7444
g3
S'nsw'
p7445
sg5
S'blenheim road'
p7446
ssS'2114'
p7447
(dp7448
g3
S'nsw'
p7449
sg5
S'denistone'
p7450
ssS'2115'
p7451
(dp7452
g3
S'nsw'
p7453
sg5
S'ermington'
p7454
ssS'2116'
p7455
(dp7456
g3
S'nsw'
p7457
sg5
S'rydalmere'
p7458
ssS'2117'
p7459
(dp7460
g3
S'nsw'
p7461
sg5
S'dundas'
p7462
ssS'2622'
p7463
(dp7464
g3
S'nsw'
p7465
sg5
S'araluen'
p7466
ssS'2623'
p7467
(dp7468
g3
S'nsw'
p7469
sg5
S'captains flat'
p7470
ssS'2620'
p7471
(dp7472
g3
S'nsw'
p7473
sg5
S'burra'
p7474
ssS'2621'
p7475
(dp7476
g3
S'nsw'
p7477
sg5
S'anembo'
p7478
ssS'2626'
p7479
(dp7480
g3
S'nsw'
p7481
sg5
S'bredbo'
p7482
ssS'2627'
p7483
(dp7484
g3
S'nsw'
p7485
sg5
S'crackenback'
p7486
ssS'2624'
p7487
(dp7488
g3
S'nsw'
p7489
sg5
S'kosciuszko'
p7490
ssS'2625'
p7491
(dp7492
g3
S'nsw'
p7493
sg5
S'thredbo'
p7494
ssS'2628'
p7495
(dp7496
g3
S'nsw'
p7497
sg5
S'avonside'
p7498
ssS'2629'
p7499
(dp7500
g3
S'nsw'
p7501
sg5
S'adaminaby'
p7502
ssS'6982'
p7503
(dp7504
g3
S'wa'
p7505
sg5
S'bentley'
p7506
ssS'5108'
p7507
(dp7508
g3
S'sa'
p7509
sg5
S'paralowie'
p7510
ssS'5109'
p7511
(dp7512
g3
S'sa'
p7513
sg5
S'brahma lodge'
p7514
ssS'6981'
p7515
(dp7516
g3
S'wa'
p7517
sg5
S'east victoria park'
p7518
ssS'3289'
p7519
(dp7520
g3
S'vic'
p7521
sg5
S'gazette'
p7522
ssS'3287'
p7523
(dp7524
g3
S'vic'
p7525
sg5
S'hawkesdale'
p7526
ssS'3286'
p7527
(dp7528
g3
S'vic'
p7529
sg5
S'condah swamp'
p7530
ssS'3285'
p7531
(dp7532
g3
S'vic'
p7533
sg5
S'codrington'
p7534
ssS'3284'
p7535
(dp7536
g3
S'vic'
p7537
sg5
S'orford'
p7538
ssS'5106'
p7539
(dp7540
g3
S'sa'
p7541
sg5
S'parafield'
p7542
ssS'3282'
p7543
(dp7544
g3
S'vic'
p7545
sg5
S'illowa'
p7546
ssS'3281'
p7547
(dp7548
g3
S'vic'
p7549
sg5
S'bushfield'
p7550
ssS'3280'
p7551
(dp7552
g3
S'vic'
p7553
sg5
S'dennington'
p7554
ssS'3448'
p7555
(dp7556
g3
S'vic'
p7557
sg5
S'elphinstone'
p7558
ssS'861'
p7559
(dp7560
g3
S'nt'
p7561
sg5
S'brunchilly'
p7562
ssS'3444'
p7563
(dp7564
g3
S'vic'
p7565
sg5
S'barfold'
p7566
ssS'3447'
p7567
(dp7568
g3
S'vic'
p7569
sg5
S'taradale'
p7570
ssS'3446'
p7571
(dp7572
g3
S'vic'
p7573
sg5
S'drummond north'
p7574
ssS'3441'
p7575
(dp7576
g3
S'vic'
p7577
sg5
S'mount macedon'
p7578
ssS'3440'
p7579
(dp7580
g3
S'vic'
p7581
sg5
S'macedon'
p7582
ssS'3442'
p7583
(dp7584
g3
S'vic'
p7585
sg5
S'ashbourne'
p7586
ssS'2024'
p7587
(dp7588
g3
S'nsw'
p7589
sg5
S'bronte'
p7590
ssS'2025'
p7591
(dp7592
g3
S'nsw'
p7593
sg5
S'woollahra'
p7594
ssS'2026'
p7595
(dp7596
g3
S'nsw'
p7597
sg5
S'bondi'
p7598
ssS'2027'
p7599
(dp7600
g3
S'nsw'
p7601
sg5
S'darling point'
p7602
ssS'2020'
p7603
(dp7604
g3
S'nsw'
p7605
sg5
S'mascot'
p7606
ssS'2021'
p7607
(dp7608
g3
S'nsw'
p7609
sg5
S'moore park'
p7610
ssS'2022'
p7611
(dp7612
g3
S'nsw'
p7613
sg5
S'bondi junction'
p7614
ssS'2023'
p7615
(dp7616
g3
S'nsw'
p7617
sg5
S'bellevue hill'
p7618
ssS'2828'
p7619
(dp7620
g3
S'nsw'
p7621
sg5
S'black hollow'
p7622
ssS'2028'
p7623
(dp7624
g3
S'nsw'
p7625
sg5
S'double bay'
p7626
ssS'2029'
p7627
(dp7628
g3
S'nsw'
p7629
sg5
S'rose bay'
p7630
ssS'2758'
p7631
(dp7632
g3
S'nsw'
p7633
sg5
S'berambing'
p7634
ssS'2759'
p7635
(dp7636
g3
S'nsw'
p7637
sg5
S'erskine park'
p7638
ssS'881'
p7639
(dp7640
g3
S'nt'
p7641
sg5
S'nhulunbuy'
p7642
ssS'880'
p7643
(dp7644
g3
S'nt'
p7645
sg5
S'gove'
p7646
ssS'886'
p7647
(dp7648
g3
S'nt'
p7649
sg5
S'jabiru'
p7650
ssS'2824'
p7651
(dp7652
g3
S'nsw'
p7653
sg5
S'beemunnel'
p7654
ssS'5214'
p7655
(dp7656
g3
S'sa'
p7657
sg5
S'currency creek'
p7658
ssS'5212'
p7659
(dp7660
g3
S'sa'
p7661
sg5
S'port elliot'
p7662
ssS'5213'
p7663
(dp7664
g3
S'sa'
p7665
sg5
S'middleton'
p7666
ssS'5210'
p7667
(dp7668
g3
S'sa'
p7669
sg5
S'mount compass'
p7670
ssS'5211'
p7671
(dp7672
g3
S'sa'
p7673
sg5
S'back valley'
p7674
ssS'4555'
p7675
(dp7676
g3
S'qld'
p7677
sg5
S'chevallum'
p7678
ssS'6180'
p7679
(dp7680
g3
S'wa'
p7681
sg5
S'lakelands'
p7682
ssS'6333'
p7683
(dp7684
g3
S'wa'
p7685
sg5
S'bow bridge'
p7686
ssS'4800'
p7687
(dp7688
g3
S'qld'
p7689
sg5
S'andromache'
p7690
ssS'3387'
p7691
(dp7692
g3
S'vic'
p7693
sg5
S'marnoo'
p7694
ssS'3384'
p7695
(dp7696
g3
S'vic'
p7697
sg5
S'frenchmans'
p7698
ssS'3385'
p7699
(dp7700
g3
S'vic'
p7701
sg5
S'dadswells bridge'
p7702
ssS'3058'
p7703
(dp7704
g3
S'vic'
p7705
sg5
S'batman'
p7706
ssS'3059'
p7707
(dp7708
g3
S'vic'
p7709
sg5
S'greenvale'
p7710
ssS'3056'
p7711
(dp7712
g3
S'vic'
p7713
sg5
S'brunswick'
p7714
ssS'7109'
p7715
(dp7716
g3
S'tas'
p7717
sg5
S'crabtree'
p7718
ssS'3054'
p7719
(dp7720
g3
S'vic'
p7721
sg5
S'carlton north'
p7722
ssS'3055'
p7723
(dp7724
g3
S'vic'
p7725
sg5
S'brunswick south'
p7726
ssS'3052'
p7727
(dp7728
g3
S'vic'
p7729
sg5
S'melbourne university'
p7730
ssS'3053'
p7731
(dp7732
g3
S'vic'
p7733
sg5
S'carlton'
p7734
ssS'3050'
p7735
(dp7736
g3
S'vic'
p7737
sg5
S'royal melbourne hospital'
p7738
ssS'3051'
p7739
(dp7740
g3
S'vic'
p7741
sg5
S'north melbourne'
p7742
ssS'1043'
p7743
(dp7744
g3
S'nsw'
p7745
sg5
S'sydney'
p7746
ssS'1042'
p7747
(dp7748
g3
S'nsw'
p7749
sg5
S'sydney'
p7750
ssS'5360'
p7751
(dp7752
g3
S'sa'
p7753
sg5
S'greenock'
p7754
ssS'1040'
p7755
(dp7756
g3
S'nsw'
p7757
sg5
S'sydney'
p7758
ssS'5412'
p7759
(dp7760
g3
S'sa'
p7761
sg5
S'navan'
p7762
ssS'1045'
p7763
(dp7764
g3
S'nsw'
p7765
sg5
S'sydney'
p7766
ssS'1044'
p7767
(dp7768
g3
S'nsw'
p7769
sg5
S'sydney'
p7770
ssS'5413'
p7771
(dp7772
g3
S'sa'
p7773
sg5
S'apoinga'
p7774
ssS'1680'
p7775
(dp7776
g3
S'nsw'
p7777
sg5
S'ryde'
p7778
ssS'1685'
p7779
(dp7780
g3
S'nsw'
p7781
sg5
S'west ryde'
p7782
ssS'4802'
p7783
(dp7784
g3
S'qld'
p7785
sg5
S'airlie beach'
p7786
ssS'4303'
p7787
(dp7788
g3
S'qld'
p7789
sg5
S'dinmore'
p7790
ssS'4301'
p7791
(dp7792
g3
S'qld'
p7793
sg5
S'collingwood park'
p7794
ssS'4300'
p7795
(dp7796
g3
S'qld'
p7797
sg5
S'augustine heights'
p7798
ssS'4307'
p7799
(dp7800
g3
S'qld'
p7801
sg5
S'coleyville'
p7802
ssS'4306'
p7803
(dp7804
g3
S'qld'
p7805
sg5
S'amberley'
p7806
ssS'4305'
p7807
(dp7808
g3
S'qld'
p7809
sg5
S'basin pocket'
p7810
ssS'4304'
p7811
(dp7812
g3
S'qld'
p7813
sg5
S'blackstone'
p7814
ssS'4309'
p7815
(dp7816
g3
S'qld'
p7817
sg5
S'aratula'
p7818
ssS'6064'
p7819
(dp7820
g3
S'wa'
p7821
sg5
S'alexander heights'
p7822
ssS'8785'
p7823
(dp7824
g3
S'vic'
p7825
sg5
S'dandenong'
p7826
ssS'3128'
p7827
(dp7828
g3
S'vic'
p7829
sg5
S'box hill'
p7830
ssS'3129'
p7831
(dp7832
g3
S'vic'
p7833
sg5
S'box hill north'
p7834
ssS'3122'
p7835
(dp7836
g3
S'vic'
p7837
sg5
S'auburn south'
p7838
ssS'3123'
p7839
(dp7840
g3
S'vic'
p7841
sg5
S'auburn'
p7842
ssS'3121'
p7843
(dp7844
g3
S'vic'
p7845
sg5
S'burnley'
p7846
ssS'3126'
p7847
(dp7848
g3
S'vic'
p7849
sg5
S'camberwell east'
p7850
ssS'3127'
p7851
(dp7852
g3
S'vic'
p7853
sg5
S'mont albert'
p7854
ssS'3124'
p7855
(dp7856
g3
S'vic'
p7857
sg5
S'camberwell'
p7858
ssS'5107'
p7859
(dp7860
g3
S'sa'
p7861
sg5
S'green fields'
p7862
ssS'5095'
p7863
(dp7864
g3
S'sa'
p7865
sg5
S'mawson lakes'
p7866
ssS'1465'
p7867
(dp7868
g3
S'nsw'
p7869
sg5
S'kensington'
p7870
ssS'6065'
p7871
(dp7872
g3
S'wa'
p7873
sg5
S'ashby'
p7874
ssS'1466'
p7875
(dp7876
g3
S'nsw'
p7877
sg5
S'unsw sydney'
p7878
ssS'1460'
p7879
(dp7880
g3
S'nsw'
p7881
sg5
S'mascot'
p7882
ssS'5096'
p7883
(dp7884
g3
S'sa'
p7885
sg5
S'gulfview heights'
p7886
ssS'6446'
p7887
(dp7888
g3
S'wa'
p7889
sg5
S'grass patch'
p7890
ssS'6447'
p7891
(dp7892
g3
S'wa'
p7893
sg5
S'lort river'
p7894
ssS'6916'
p7895
(dp7896
g3
S'wa'
p7897
sg5
S'osborne park'
p7898
ssS'6445'
p7899
(dp7900
g3
S'wa'
p7901
sg5
S'north cascade'
p7902
ssS'6442'
p7903
(dp7904
g3
S'wa'
p7905
sg5
S'kambalda east'
p7906
ssS'6443'
p7907
(dp7908
g3
S'wa'
p7909
sg5
S'balladonia'
p7910
ssS'6440'
p7911
(dp7912
g3
S'wa'
p7913
sg5
S'bandya'
p7914
ssS'6448'
p7915
(dp7916
g3
S'wa'
p7917
sg5
S'gibson'
p7918
ssS'4230'
p7919
(dp7920
g3
S'qld'
p7921
sg5
S'robina town centre'
p7922
ssS'4454'
p7923
(dp7924
g3
S'qld'
p7925
sg5
S'baffle west'
p7926
ssS'860'
p7927
(dp7928
g3
S'nt'
p7929
sg5
S'tennant creek'
p7930
ssS'862'
p7931
(dp7932
g3
S'nt'
p7933
sg5
S'avon downs'
p7934
ssS'3941'
p7935
(dp7936
g3
S'vic'
p7937
sg5
S'rye'
p7938
ssS'3942'
p7939
(dp7940
g3
S'vic'
p7941
sg5
S'blairgowrie'
p7942
ssS'3943'
p7943
(dp7944
g3
S'vic'
p7945
sg5
S'sorrento'
p7946
ssS'3944'
p7947
(dp7948
g3
S'vic'
p7949
sg5
S'portsea'
p7950
ssS'3945'
p7951
(dp7952
g3
S'vic'
p7953
sg5
S'bellview'
p7954
ssS'3946'
p7955
(dp7956
g3
S'vic'
p7957
sg5
S'bena'
p7958
ssS'6701'
p7959
(dp7960
g3
S'wa'
p7961
sg5
S'babbage island'
p7962
ssS'6705'
p7963
(dp7964
g3
S'wa'
p7965
sg5
S'east lyons river'
p7966
ssS'6707'
p7967
(dp7968
g3
S'wa'
p7969
sg5
S'cape range national park'
p7970
ssS'1231'
p7971
(dp7972
g3
S'nsw'
p7973
sg5
S'sydney south'
p7974
ssS'2756'
p7975
(dp7976
g3
S'nsw'
p7977
sg5
S'bligh park'
p7978
ssS'4129'
p7979
(dp7980
g3
S'qld'
p7981
sg5
S'loganholme'
p7982
ssS'4128'
p7983
(dp7984
g3
S'qld'
p7985
sg5
S'shailer park'
p7986
ssS'2757'
p7987
(dp7988
g3
S'nsw'
p7989
sg5
S'kurmond'
p7990
ssS'4123'
p7991
(dp7992
g3
S'qld'
p7993
sg5
S'rochedale'
p7994
ssS'4122'
p7995
(dp7996
g3
S'qld'
p7997
sg5
S'mansfield'
p7998
ssS'4121'
p7999
(dp8000
g3
S'qld'
p8001
sg5
S'holland park'
p8002
ssS'4120'
p8003
(dp8004
g3
S'qld'
p8005
sg5
S'greenslopes'
p8006
ssS'4127'
p8007
(dp8008
g3
S'qld'
p8009
sg5
S'daisy hill'
p8010
ssS'2754'
p8011
(dp8012
g3
S'nsw'
p8013
sg5
S'north richmond'
p8014
ssS'4125'
p8015
(dp8016
g3
S'qld'
p8017
sg5
S'munruben'
p8018
ssS'4124'
p8019
(dp8020
g3
S'qld'
p8021
sg5
S'boronia heights'
p8022
ssS'1585'
p8023
(dp8024
g3
S'nsw'
p8025
sg5
S'crows nest'
p8026
ssS'2752'
p8027
(dp8028
g3
S'nsw'
p8029
sg5
S'silverdale'
p8030
ssS'5680'
p8031
(dp8032
g3
S'sa'
p8033
sg5
S'carawa'
p8034
ssS'2753'
p8035
(dp8036
g3
S'nsw'
p8037
sg5
S'agnes banks'
p8038
ssS'4707'
p8039
(dp8040
g3
S'qld'
p8041
sg5
S'collaroy'
p8042
ssS'2750'
p8043
(dp8044
g3
S'nsw'
p8045
sg5
S'emu heights'
p8046
ssS'4706'
p8047
(dp8048
g3
S'qld'
p8049
sg5
S'ogmore'
p8050
ssS'2751'
p8051
(dp8052
g3
S'nsw'
p8053
sg5
S'penrith'
p8054
ssS'4705'
p8055
(dp8056
g3
S'qld'
p8057
sg5
S'clarke creek'
p8058
ssS'4704'
p8059
(dp8060
g3
S'qld'
p8061
sg5
S'wattlebank'
p8062
ssS'4703'
p8063
(dp8064
g3
S'qld'
p8065
sg5
S'adelaide park'
p8066
ssS'4702'
p8067
(dp8068
g3
S'qld'
p8069
sg5
S'alberta'
p8070
ssS'4055'
p8071
(dp8072
g3
S'qld'
p8073
sg5
S'bunya'
p8074
ssS'4054'
p8075
(dp8076
g3
S'qld'
p8077
sg5
S'arana hills'
p8078
ssS'4053'
p8079
(dp8080
g3
S'qld'
p8081
sg5
S'brookside centre'
p8082
ssS'4701'
p8083
(dp8084
g3
S'qld'
p8085
sg5
S'berserker'
p8086
ssS'4051'
p8087
(dp8088
g3
S'qld'
p8089
sg5
S'alderley'
p8090
ssS'4700'
p8091
(dp8092
g3
S'qld'
p8093
sg5
S'allenstown'
p8094
ssS'6063'
p8095
(dp8096
g3
S'wa'
p8097
sg5
S'beechboro'
p8098
ssS'4059'
p8099
(dp8100
g3
S'qld'
p8101
sg5
S'kelvin grove'
p8102
ssS'4361'
p8103
(dp8104
g3
S'qld'
p8105
sg5
S'back plains'
p8106
ssS'4673'
p8107
(dp8108
g3
S'qld'
p8109
sg5
S'miara'
p8110
ssS'3610'
p8111
(dp8112
g3
S'vic'
p8113
sg5
S'dhurringile'
p8114
ssS'3612'
p8115
(dp8116
g3
S'vic'
p8117
sg5
S'moora'
p8118
ssS'2298'
p8119
(dp8120
g3
S'nsw'
p8121
sg5
S'georgetown'
p8122
ssS'3614'
p8123
(dp8124
g3
S'vic'
p8125
sg5
S'toolamba'
p8126
ssS'3616'
p8127
(dp8128
g3
S'vic'
p8129
sg5
S'cooma'
p8130
ssS'3617'
p8131
(dp8132
g3
S'vic'
p8133
sg5
S'byrneside'
p8134
ssS'3618'
p8135
(dp8136
g3
S'vic'
p8137
sg5
S'merrigum'
p8138
ssS'3619'
p8139
(dp8140
g3
S'vic'
p8141
sg5
S'kyabram'
p8142
ssS'2291'
p8143
(dp8144
g3
S'nsw'
p8145
sg5
S'merewether'
p8146
ssS'2290'
p8147
(dp8148
g3
S'nsw'
p8149
sg5
S'bennetts green'
p8150
ssS'2297'
p8151
(dp8152
g3
S'nsw'
p8153
sg5
S'tighes hill'
p8154
ssS'2296'
p8155
(dp8156
g3
S'nsw'
p8157
sg5
S'islington'
p8158
ssS'2295'
p8159
(dp8160
g3
S'nsw'
p8161
sg5
S'fern bay'
p8162
ssS'2294'
p8163
(dp8164
g3
S'nsw'
p8165
sg5
S'carrington'
p8166
ssS'4360'
p8167
(dp8168
g3
S'qld'
p8169
sg5
S'nobby'
p8170
ssS'2569'
p8171
(dp8172
g3
S'nsw'
p8173
sg5
S'douglas park'
p8174
ssS'2568'
p8175
(dp8176
g3
S'nsw'
p8177
sg5
S'menangle'
p8178
ssS'4801'
p8179
(dp8180
g3
S'qld'
p8181
sg5
S'hayman island'
p8182
ssS'2560'
p8183
(dp8184
g3
S'nsw'
p8185
sg5
S'airds'
p8186
ssS'2563'
p8187
(dp8188
g3
S'nsw'
p8189
sg5
S'menangle park'
p8190
ssS'2565'
p8191
(dp8192
g3
S'nsw'
p8193
sg5
S'denham court'
p8194
ssS'2564'
p8195
(dp8196
g3
S'nsw'
p8197
sg5
S'glenquarie'
p8198
ssS'2567'
p8199
(dp8200
g3
S'nsw'
p8201
sg5
S'currans hill'
p8202
ssS'2566'
p8203
(dp8204
g3
S'nsw'
p8205
sg5
S'bow bowing'
p8206
ssS'2369'
p8207
(dp8208
g3
S'nsw'
p8209
sg5
S'old mill'
p8210
ssS'2365'
p8211
(dp8212
g3
S'nsw'
p8213
sg5
S'backwater'
p8214
ssS'2361'
p8215
(dp8216
g3
S'nsw'
p8217
sg5
S'ashford'
p8218
ssS'2360'
p8219
(dp8220
g3
S'nsw'
p8221
sg5
S'auburn vale'
p8222
ssS'7290'
p8223
(dp8224
g3
S'tas'
p8225
sg5
S'hadspen'
p8226
ssS'7291'
p8227
(dp8228
g3
S'tas'
p8229
sg5
S'carrick'
p8230
ssS'7292'
p8231
(dp8232
g3
S'tas'
p8233
sg5
S'hagley'
p8234
ssS'2584'
p8235
(dp8236
g3
S'nsw'
p8237
sg5
S'binalong'
p8238
ssS'7922'
p8239
(dp8240
g3
S'tas'
p8241
sg5
S'launceston'
p8242
ssS'7923'
p8243
(dp8244
g3
S'tas'
p8245
sg5
S'launceston'
p8246
ssS'2581'
p8247
(dp8248
g3
S'nsw'
p8249
sg5
S'bellmount forest'
p8250
ssS'2580'
p8251
(dp8252
g3
S'nsw'
p8253
sg5
S'bannaby'
p8254
ssS'5021'
p8255
(dp8256
g3
S'sa'
p8257
sg5
S'west lakes'
p8258
ssS'5020'
p8259
(dp8260
g3
S'sa'
p8261
sg5
S'west lakes shore'
p8262
ssS'5023'
p8263
(dp8264
g3
S'sa'
p8265
sg5
S'findon'
p8266
ssS'5022'
p8267
(dp8268
g3
S'sa'
p8269
sg5
S'grange'
p8270
ssS'5025'
p8271
(dp8272
g3
S'sa'
p8273
sg5
S'flinders park'
p8274
ssS'5024'
p8275
(dp8276
g3
S'sa'
p8277
sg5
S'fulham'
p8278
ssS'2588'
p8279
(dp8280
g3
S'nsw'
p8281
sg5
S'wallendbeen'
p8282
ssS'1860'
p8283
(dp8284
g3
S'nsw'
p8285
sg5
S'fairfield'
p8286
ssS'3728'
p8287
(dp8288
g3
S'vic'
p8289
sg5
S'boomahnoomoonah'
p8290
ssS'3724'
p8291
(dp8292
g3
S'vic'
p8293
sg5
S'mansfield'
p8294
ssS'3725'
p8295
(dp8296
g3
S'vic'
p8297
sg5
S'boxwood'
p8298
ssS'3726'
p8299
(dp8300
g3
S'vic'
p8301
sg5
S'bungeet'
p8302
ssS'3727'
p8303
(dp8304
g3
S'vic'
p8305
sg5
S'almonds'
p8306
ssS'3720'
p8307
(dp8308
g3
S'vic'
p8309
sg5
S'bonnie doon'
p8310
ssS'4490'
p8311
(dp8312
g3
S'qld'
p8313
sg5
S'barringun'
p8314
ssS'3722'
p8315
(dp8316
g3
S'vic'
p8317
sg5
S'barwite'
p8318
ssS'3723'
p8319
(dp8320
g3
S'vic'
p8321
sg5
S'archerton'
p8322
ssS'4680'
p8323
(dp8324
g3
S'qld'
p8325
sg5
S'barney point'
p8326
ssS'6290'
p8327
(dp8328
g3
S'wa'
p8329
sg5
S'augusta'
p8330
ssS'2109'
p8331
(dp8332
g3
S'nsw'
p8333
sg5
S'macquarie university'
p8334
ssS'2108'
p8335
(dp8336
g3
S'nsw'
p8337
sg5
S'coasters retreat'
p8338
ssS'6059'
p8339
(dp8340
g3
S'wa'
p8341
sg5
S'dianella'
p8342
ssS'6058'
p8343
(dp8344
g3
S'wa'
p8345
sg5
S'forrestfield'
p8346
ssS'2103'
p8347
(dp8348
g3
S'nsw'
p8349
sg5
S'mona vale'
p8350
ssS'2102'
p8351
(dp8352
g3
S'nsw'
p8353
sg5
S'warriewood'
p8354
ssS'2101'
p8355
(dp8356
g3
S'nsw'
p8357
sg5
S'elanora heights'
p8358
ssS'2100'
p8359
(dp8360
g3
S'nsw'
p8361
sg5
S'allambie heights'
p8362
ssS'2107'
p8363
(dp8364
g3
S'nsw'
p8365
sg5
S'avalon beach'
p8366
ssS'2106'
p8367
(dp8368
g3
S'nsw'
p8369
sg5
S'newport'
p8370
ssS'2105'
p8371
(dp8372
g3
S'nsw'
p8373
sg5
S'church point'
p8374
ssS'2104'
p8375
(dp8376
g3
S'nsw'
p8377
sg5
S'bayview'
p8378
ssS'5115'
p8379
(dp8380
g3
S'sa'
p8381
sg5
S'kudla'
p8382
ssS'5114'
p8383
(dp8384
g3
S'sa'
p8385
sg5
S'andrews farm'
p8386
ssS'5117'
p8387
(dp8388
g3
S'sa'
p8389
sg5
S'angle vale'
p8390
ssS'5116'
p8391
(dp8392
g3
S'sa'
p8393
sg5
S'evanston'
p8394
ssS'5111'
p8395
(dp8396
g3
S'sa'
p8397
sg5
S'edinburgh'
p8398
ssS'5110'
p8399
(dp8400
g3
S'sa'
p8401
sg5
S'bolivar'
p8402
ssS'5113'
p8403
(dp8404
g3
S'sa'
p8405
sg5
S'davoren park'
p8406
ssS'5112'
p8407
(dp8408
g3
S'sa'
p8409
sg5
S'elizabeth'
p8410
ssS'2631'
p8411
(dp8412
g3
S'nsw'
p8413
sg5
S'ando'
p8414
ssS'5118'
p8415
(dp8416
g3
S'sa'
p8417
sg5
S'bibaringa'
p8418
ssS'2633'
p8419
(dp8420
g3
S'nsw'
p8421
sg5
S'corrowong'
p8422
ssS'2632'
p8423
(dp8424
g3
S'nsw'
p8425
sg5
S'bibbenluke'
p8426
ssS'3438'
p8427
(dp8428
g3
S'vic'
p8429
sg5
S'new gisborne'
p8430
ssS'1240'
p8431
(dp8432
g3
S'nsw'
p8433
sg5
S'haymarket'
p8434
ssS'3430'
p8435
(dp8436
g3
S'vic'
p8437
sg5
S'clarkefield'
p8438
ssS'3431'
p8439
(dp8440
g3
S'vic'
p8441
sg5
S'riddells creek'
p8442
ssS'3432'
p8443
(dp8444
g3
S'vic'
p8445
sg5
S'bolinda'
p8446
ssS'3767'
p8447
(dp8448
g3
S'vic'
p8449
sg5
S'mount dandenong'
p8450
ssS'872'
p8451
(dp8452
g3
S'nt'
p8453
sg5
S'ali curung'
p8454
ssS'3435'
p8455
(dp8456
g3
S'vic'
p8457
sg5
S'benloch'
p8458
ssS'870'
p8459
(dp8460
g3
S'nt'
p8461
sg5
S'alice springs'
p8462
ssS'3437'
p8463
(dp8464
g3
S'vic'
p8465
sg5
S'bullengarook'
p8466
ssS'2037'
p8467
(dp8468
g3
S'nsw'
p8469
sg5
S'forest lodge'
p8470
ssS'2036'
p8471
(dp8472
g3
S'nsw'
p8473
sg5
S'chifley'
p8474
ssS'2035'
p8475
(dp8476
g3
S'nsw'
p8477
sg5
S'maroubra'
p8478
ssS'2034'
p8479
(dp8480
g3
S'nsw'
p8481
sg5
S'coogee'
p8482
ssS'2033'
p8483
(dp8484
g3
S'nsw'
p8485
sg5
S'kensington'
p8486
ssS'2032'
p8487
(dp8488
g3
S'nsw'
p8489
sg5
S'daceyville'
p8490
ssS'2031'
p8491
(dp8492
g3
S'nsw'
p8493
sg5
S'clovelly'
p8494
ssS'3480'
p8495
(dp8496
g3
S'vic'
p8497
sg5
S'areegra'
p8498
ssS'2749'
p8499
(dp8500
g3
S'nsw'
p8501
sg5
S'castlereagh'
p8502
ssS'2748'
p8503
(dp8504
g3
S'nsw'
p8505
sg5
S'orchard hills'
p8506
ssS'2039'
p8507
(dp8508
g3
S'nsw'
p8509
sg5
S'rozelle'
p8510
ssS'2038'
p8511
(dp8512
g3
S'nsw'
p8513
sg5
S'annandale'
p8514
ssS'7325'
p8515
(dp8516
g3
S'tas'
p8517
sg5
S'calder'
p8518
ssS'5201'
p8519
(dp8520
g3
S'sa'
p8521
sg5
S'blackfellows creek'
p8522
ssS'5203'
p8523
(dp8524
g3
S'sa'
p8525
sg5
S'bald hills'
p8526
ssS'5202'
p8527
(dp8528
g3
S'sa'
p8529
sg5
S'hindmarsh tiers'
p8530
ssS'5204'
p8531
(dp8532
g3
S'sa'
p8533
sg5
S'cape jervis'
p8534
ssS'7320'
p8535
(dp8536
g3
S'tas'
p8537
sg5
S'acton'
p8538
ssS'7321'
p8539
(dp8540
g3
S'tas'
p8541
sg5
S'black river'
p8542
ssS'3544'
p8543
(dp8544
g3
S'vic'
p8545
sg5
S'chinangin'
p8546
ssS'3546'
p8547
(dp8548
g3
S'vic'
p8549
sg5
S'bolton'
p8550
ssS'3540'
p8551
(dp8552
g3
S'vic'
p8553
sg5
S'cannie'
p8554
ssS'3542'
p8555
(dp8556
g3
S'vic'
p8557
sg5
S'cokum'
p8558
ssS'3549'
p8559
(dp8560
g3
S'vic'
p8561
sg5
S'annuello'
p8562
ssS'2778'
p8563
(dp8564
g3
S'nsw'
p8565
sg5
S'bulls camp'
p8566
ssS'4565'
p8567
(dp8568
g3
S'qld'
p8569
sg5
S'boreen point'
p8570
ssS'7113'
p8571
(dp8572
g3
S'tas'
p8573
sg5
S'franklin'
p8574
ssS'7112'
p8575
(dp8576
g3
S'tas'
p8577
sg5
S'abels bay'
p8578
ssS'7117'
p8579
(dp8580
g3
S'tas'
p8581
sg5
S'dover'
p8582
ssS'7116'
p8583
(dp8584
g3
S'tas'
p8585
sg5
S'brooks bay'
p8586
ssS'3041'
p8587
(dp8588
g3
S'vic'
p8589
sg5
S'essendon north'
p8590
ssS'3040'
p8591
(dp8592
g3
S'vic'
p8593
sg5
S'aberfeldie'
p8594
ssS'7119'
p8595
(dp8596
g3
S'tas'
p8597
sg5
S'stonor'
p8598
ssS'3042'
p8599
(dp8600
g3
S'vic'
p8601
sg5
S'airport west'
p8602
ssS'3045'
p8603
(dp8604
g3
S'vic'
p8605
sg5
S'melbourne airport'
p8606
ssS'3044'
p8607
(dp8608
g3
S'vic'
p8609
sg5
S'pascoe vale'
p8610
ssS'3047'
p8611
(dp8612
g3
S'vic'
p8613
sg5
S'broadmeadows'
p8614
ssS'3046'
p8615
(dp8616
g3
S'vic'
p8617
sg5
S'glenroy'
p8618
ssS'4568'
p8619
(dp8620
g3
S'qld'
p8621
sg5
S'pinbarren'
p8622
ssS'5374'
p8623
(dp8624
g3
S'sa'
p8625
sg5
S'australia plains'
p8626
ssS'5371'
p8627
(dp8628
g3
S'sa'
p8629
sg5
S'morn hill'
p8630
ssS'5373'
p8631
(dp8632
g3
S'sa'
p8633
sg5
S'allendale north'
p8634
ssS'5372'
p8635
(dp8636
g3
S'sa'
p8637
sg5
S'freeling'
p8638
ssS'1675'
p8639
(dp8640
g3
S'nsw'
p8641
sg5
S'gladesville'
p8642
ssS'7249'
p8643
(dp8644
g3
S'tas'
p8645
sg5
S'kings meadows'
p8646
ssS'3135'
p8647
(dp8648
g3
S'vic'
p8649
sg5
S'bedford road'
p8650
ssS'3134'
p8651
(dp8652
g3
S'vic'
p8653
sg5
S'ringwood'
p8654
ssS'3137'
p8655
(dp8656
g3
S'vic'
p8657
sg5
S'kilsyth'
p8658
ssS'3136'
p8659
(dp8660
g3
S'vic'
p8661
sg5
S'croydon'
p8662
ssS'3131'
p8663
(dp8664
g3
S'vic'
p8665
sg5
S'brentford square'
p8666
ssS'3130'
p8667
(dp8668
g3
S'vic'
p8669
sg5
S'blackburn'
p8670
ssS'3133'
p8671
(dp8672
g3
S'vic'
p8673
sg5
S'vermont'
p8674
ssS'3132'
p8675
(dp8676
g3
S'vic'
p8677
sg5
S'mitcham'
p8678
ssS'3139'
p8679
(dp8680
g3
S'vic'
p8681
sg5
S'beenak'
p8682
ssS'3138'
p8683
(dp8684
g3
S'vic'
p8685
sg5
S'mooroolbark'
p8686
ssS'6014'
p8687
(dp8688
g3
S'wa'
p8689
sg5
S'floreat'
p8690
ssS'6017'
p8691
(dp8692
g3
S'wa'
p8693
sg5
S'herdsman'
p8694
ssS'7248'
p8695
(dp8696
g3
S'tas'
p8697
sg5
S'invermay'
p8698
ssS'2558'
p8699
(dp8700
g3
S'nsw'
p8701
sg5
S'eagle vale'
p8702
ssS'6018'
p8703
(dp8704
g3
S'wa'
p8705
sg5
S'churchlands'
p8706
ssS'4106'
p8707
(dp8708
g3
S'qld'
p8709
sg5
S'brisbane market'
p8710
ssS'6450'
p8711
(dp8712
g3
S'wa'
p8713
sg5
S'bandy creek'
p8714
ssS'4208'
p8715
(dp8716
g3
S'qld'
p8717
sg5
S'gilberton'
p8718
ssS'4209'
p8719
(dp8720
g3
S'qld'
p8721
sg5
S'coomera'
p8722
ssS'6901'
p8723
(dp8724
g3
S'wa'
p8725
sg5
S'west leederville'
p8726
ssS'4207'
p8727
(dp8728
g3
S'qld'
p8729
sg5
S'alberton'
p8730
ssS'4205'
p8731
(dp8732
g3
S'qld'
p8733
sg5
S'bethania'
p8734
ssS'5560'
p8735
(dp8736
g3
S'sa'
p8737
sg5
S'bute'
p8738
ssS'3959'
p8739
(dp8740
g3
S'vic'
p8741
sg5
S'fish creek'
p8742
ssS'3958'
p8743
(dp8744
g3
S'vic'
p8745
sg5
S'buffalo'
p8746
ssS'3953'
p8747
(dp8748
g3
S'vic'
p8749
sg5
S'berrys creek'
p8750
ssS'3951'
p8751
(dp8752
g3
S'vic'
p8753
sg5
S'arawata'
p8754
ssS'3950'
p8755
(dp8756
g3
S'vic'
p8757
sg5
S'kardella south'
p8758
ssS'3957'
p8759
(dp8760
g3
S'vic'
p8761
sg5
S'grassy spur'
p8762
ssS'3956'
p8763
(dp8764
g3
S'vic'
p8765
sg5
S'dumbalk'
p8766
ssS'3954'
p8767
(dp8768
g3
S'vic'
p8769
sg5
S'koonwarra'
p8770
ssS'4116'
p8771
(dp8772
g3
S'qld'
p8773
sg5
S'calamvale'
p8774
ssS'4117'
p8775
(dp8776
g3
S'qld'
p8777
sg5
S'berrinba'
p8778
ssS'4114'
p8779
(dp8780
g3
S'qld'
p8781
sg5
S'kingston'
p8782
ssS'4115'
p8783
(dp8784
g3
S'qld'
p8785
sg5
S'algester'
p8786
ssS'4112'
p8787
(dp8788
g3
S'qld'
p8789
sg5
S'kuraby'
p8790
ssS'4113'
p8791
(dp8792
g3
S'qld'
p8793
sg5
S'eight mile plains'
p8794
ssS'4110'
p8795
(dp8796
g3
S'qld'
p8797
sg5
S'acacia ridge'
p8798
ssS'4111'
p8799
(dp8800
g3
S'qld'
p8801
sg5
S'nathan'
p8802
ssS'4118'
p8803
(dp8804
g3
S'qld'
p8805
sg5
S'browns plains'
p8806
ssS'4119'
p8807
(dp8808
g3
S'qld'
p8809
sg5
S'underwood'
p8810
ssS'2477'
p8811
(dp8812
g3
S'nsw'
p8813
sg5
S'alstonvale'
p8814
ssS'2476'
p8815
(dp8816
g3
S'nsw'
p8817
sg5
S'acacia creek'
p8818
ssS'2474'
p8819
(dp8820
g3
S'nsw'
p8821
sg5
S'afterlee'
p8822
ssS'6605'
p8823
(dp8824
g3
S'wa'
p8825
sg5
S'kondut'
p8826
ssS'6606'
p8827
(dp8828
g3
S'wa'
p8829
sg5
S'ballidu'
p8830
ssS'3057'
p8831
(dp8832
g3
S'vic'
p8833
sg5
S'brunswick east'
p8834
ssS'6608'
p8835
(dp8836
g3
S'wa'
p8837
sg5
S'east damboring'
p8838
ssS'6609'
p8839
(dp8840
g3
S'wa'
p8841
sg5
S'dalwallinu'
p8842
ssS'4060'
p8843
(dp8844
g3
S'qld'
p8845
sg5
S'ashgrove'
p8846
ssS'4061'
p8847
(dp8848
g3
S'qld'
p8849
sg5
S'the gap'
p8850
ssS'5942'
p8851
(dp8852
g3
S'sa'
p8853
sg5
S'regency park'
p8854
ssS'4067'
p8855
(dp8856
g3
S'qld'
p8857
sg5
S'st lucia'
p8858
ssS'4064'
p8859
(dp8860
g3
S'qld'
p8861
sg5
S'milton'
p8862
ssS'4065'
p8863
(dp8864
g3
S'qld'
p8865
sg5
S'bardon'
p8866
ssS'4068'
p8867
(dp8868
g3
S'qld'
p8869
sg5
S'chelmer'
p8870
ssS'4069'
p8871
(dp8872
g3
S'qld'
p8873
sg5
S'brookfield'
p8874
ssS'2770'
p8875
(dp8876
g3
S'nsw'
p8877
sg5
S'bidwill'
p8878
ssS'4890'
p8879
(dp8880
g3
S'qld'
p8881
sg5
S'howitt'
p8882
ssS'3607'
p8883
(dp8884
g3
S'vic'
p8885
sg5
S'tabilk'
p8886
ssS'4570'
p8887
(dp8888
g3
S'qld'
p8889
sg5
S'amamoor'
p8890
ssS'3608'
p8891
(dp8892
g3
S'vic'
p8893
sg5
S'bailieston'
p8894
ssS'1041'
p8895
(dp8896
g3
S'nsw'
p8897
sg5
S'sydney'
p8898
ssS'2479'
p8899
(dp8900
g3
S'nsw'
p8901
sg5
S'bangalow'
p8902
ssS'2478'
p8903
(dp8904
g3
S'nsw'
p8905
sg5
S'ballina'
p8906
ssS'1046'
p8907
(dp8908
g3
S'nsw'
p8909
sg5
S'sydney'
p8910
ssS'4571'
p8911
(dp8912
g3
S'qld'
p8913
sg5
S'como'
p8914
ssS'6110'
p8915
(dp8916
g3
S'wa'
p8917
sg5
S'gosnells'
p8918
ssS'6111'
p8919
(dp8920
g3
S'wa'
p8921
sg5
S'ashendon'
p8922
ssS'6112'
p8923
(dp8924
g3
S'wa'
p8925
sg5
S'armadale'
p8926
ssS'4480'
p8927
(dp8928
g3
S'qld'
p8929
sg5
S'eromanga'
p8930
ssS'2358'
p8931
(dp8932
g3
S'nsw'
p8933
sg5
S'arding'
p8934
ssS'2359'
p8935
(dp8936
g3
S'nsw'
p8937
sg5
S'aberdeen'
p8938
ssS'2352'
p8939
(dp8940
g3
S'nsw'
p8941
sg5
S'kootingal'
p8942
ssS'2353'
p8943
(dp8944
g3
S'nsw'
p8945
sg5
S'moonbi'
p8946
ssS'2350'
p8947
(dp8948
g3
S'nsw'
p8949
sg5
S'aberfoyle'
p8950
ssS'2351'
p8951
(dp8952
g3
S'nsw'
p8953
sg5
S'university of new england'
p8954
ssS'2356'
p8955
(dp8956
g3
S'nsw'
p8957
sg5
S'gwabegar'
p8958
ssS'2357'
p8959
(dp8960
g3
S'nsw'
p8961
sg5
S'bomera'
p8962
ssS'2354'
p8963
(dp8964
g3
S'nsw'
p8965
sg5
S'branga plains'
p8966
ssS'2355'
p8967
(dp8968
g3
S'nsw'
p8969
sg5
S'bendemeer'
p8970
ssS'3739'
p8971
(dp8972
g3
S'vic'
p8973
sg5
S'eurobin'
p8974
ssS'3738'
p8975
(dp8976
g3
S'vic'
p8977
sg5
S'ovens'
p8978
ssS'3737'
p8979
(dp8980
g3
S'vic'
p8981
sg5
S'abbeyard'
p8982
ssS'3736'
p8983
(dp8984
g3
S'vic'
p8985
sg5
S'myrtleford'
p8986
ssS'3735'
p8987
(dp8988
g3
S'vic'
p8989
sg5
S'bowmans forest'
p8990
ssS'3733'
p8991
(dp8992
g3
S'vic'
p8993
sg5
S'whitfield'
p8994
ssS'3732'
p8995
(dp8996
g3
S'vic'
p8997
sg5
S'moyhu'
p8998
ssS'3730'
p8999
(dp9000
g3
S'vic'
p9001
sg5
S'bathumi'
p9002
ssS'2136'
p9003
(dp9004
g3
S'nsw'
p9005
sg5
S'burwood heights'
p9006
ssS'2137'
p9007
(dp9008
g3
S'nsw'
p9009
sg5
S'breakfast point'
p9010
ssS'2134'
p9011
(dp9012
g3
S'nsw'
p9013
sg5
S'burwood'
p9014
ssS'2135'
p9015
(dp9016
g3
S'nsw'
p9017
sg5
S'strathfield'
p9018
ssS'2132'
p9019
(dp9020
g3
S'nsw'
p9021
sg5
S'croydon'
p9022
ssS'2133'
p9023
(dp9024
g3
S'nsw'
p9025
sg5
S'croydon park'
p9026
ssS'2130'
p9027
(dp9028
g3
S'nsw'
p9029
sg5
S'summer hill'
p9030
ssS'2131'
p9031
(dp9032
g3
S'nsw'
p9033
sg5
S'ashfield'
p9034
ssS'4699'
p9035
(dp9036
g3
S'qld'
p9037
sg5
S'bajool'
p9038
ssS'2138'
p9039
(dp9040
g3
S'nsw'
p9041
sg5
S'concord west'
p9042
ssS'2139'
p9043
(dp9044
g3
S'nsw'
p9045
sg5
S'concord repatriation hospital'
p9046
ssS'6028'
p9047
(dp9048
g3
S'wa'
p9049
sg5
S'burns beach'
p9050
ssS'6029'
p9051
(dp9052
g3
S'wa'
p9053
sg5
S'trigg'
p9054
ssS'6020'
p9055
(dp9056
g3
S'wa'
p9057
sg5
S'carine'
p9058
ssS'6021'
p9059
(dp9060
g3
S'wa'
p9061
sg5
S'balcatta'
p9062
ssS'6022'
p9063
(dp9064
g3
S'wa'
p9065
sg5
S'hamersley'
p9066
ssS'6023'
p9067
(dp9068
g3
S'wa'
p9069
sg5
S'duncraig'
p9070
ssS'6024'
p9071
(dp9072
g3
S'wa'
p9073
sg5
S'greenwood'
p9074
ssS'6025'
p9075
(dp9076
g3
S'wa'
p9077
sg5
S'craigie'
p9078
ssS'6026'
p9079
(dp9080
g3
S'wa'
p9081
sg5
S'kingsley'
p9082
ssS'6027'
p9083
(dp9084
g3
S'wa'
p9085
sg5
S'beldon'
p9086
ssS'5160'
p9087
(dp9088
g3
S'sa'
p9089
sg5
S'lonsdale'
p9090
ssS'5161'
p9091
(dp9092
g3
S'sa'
p9093
sg5
S'old reynella'
p9094
ssS'5162'
p9095
(dp9096
g3
S'sa'
p9097
sg5
S'morphett vale'
p9098
ssS'5163'
p9099
(dp9100
g3
S'sa'
p9101
sg5
S'hackham'
p9102
ssS'5164'
p9103
(dp9104
g3
S'sa'
p9105
sg5
S'christie downs'
p9106
ssS'5165'
p9107
(dp9108
g3
S'sa'
p9109
sg5
S'christies beach'
p9110
ssS'5166'
p9111
(dp9112
g3
S'sa'
p9113
sg5
S"o'sullivan beach"
p9114
ssS'5167'
p9115
(dp9116
g3
S'sa'
p9117
sg5
S'port noarlunga'
p9118
ssS'5168'
p9119
(dp9120
g3
S'sa'
p9121
sg5
S'noarlunga centre'
p9122
ssS'5169'
p9123
(dp9124
g3
S'sa'
p9125
sg5
S'moana'
p9126
ssS'2642'
p9127
(dp9128
g3
S'nsw'
p9129
sg5
S'bidgeemia'
p9130
ssS'2643'
p9131
(dp9132
g3
S'nsw'
p9133
sg5
S'howlong'
p9134
ssS'2644'
p9135
(dp9136
g3
S'nsw'
p9137
sg5
S'bowna'
p9138
ssS'2645'
p9139
(dp9140
g3
S'nsw'
p9141
sg5
S'coonong'
p9142
ssS'2646'
p9143
(dp9144
g3
S'nsw'
p9145
sg5
S'balldale'
p9146
ssS'2647'
p9147
(dp9148
g3
S'nsw'
p9149
sg5
S'mulwala'
p9150
ssS'4803'
p9151
(dp9152
g3
S'qld'
p9153
sg5
S'hamilton island'
p9154
ssS'1441'
p9155
(dp9156
g3
S'nsw'
p9157
sg5
S'waterloo'
p9158
ssS'4575'
p9159
(dp9160
g3
S'qld'
p9161
sg5
S'birtinya'
p9162
ssS'4805'
p9163
(dp9164
g3
S'qld'
p9165
sg5
S'binbee'
p9166
ssS'3429'
p9167
(dp9168
g3
S'vic'
p9169
sg5
S'sunbury'
p9170
ssS'3428'
p9171
(dp9172
g3
S'vic'
p9173
sg5
S'bulla'
p9174
ssS'4806'
p9175
(dp9176
g3
S'qld'
p9177
sg5
S'carstairs'
p9178
ssS'3423'
p9179
(dp9180
g3
S'vic'
p9181
sg5
S'jeparit'
p9182
ssS'3420'
p9183
(dp9184
g3
S'vic'
p9185
sg5
S'lillimur'
p9186
ssS'3427'
p9187
(dp9188
g3
S'vic'
p9189
sg5
S'diggers rest'
p9190
ssS'3424'
p9191
(dp9192
g3
S'vic'
p9193
sg5
S'albacutya'
p9194
ssS'2002'
p9195
(dp9196
g3
S'nsw'
p9197
sg5
S'world square'
p9198
ssS'6335'
p9199
(dp9200
g3
S'wa'
p9201
sg5
S'gnowangerup'
p9202
ssS'2000'
p9203
(dp9204
g3
S'nsw'
p9205
sg5
S'dawes point'
p9206
ssS'2001'
p9207
(dp9208
g3
S'nsw'
p9209
sg5
S'sydney'
p9210
ssS'2006'
p9211
(dp9212
g3
S'nsw'
p9213
sg5
S'the university of sydney'
p9214
ssS'2007'
p9215
(dp9216
g3
S'nsw'
p9217
sg5
S'broadway'
p9218
ssS'4859'
p9219
(dp9220
g3
S'qld'
p9221
sg5
S'no 6 branch'
p9222
ssS'4416'
p9223
(dp9224
g3
S'qld'
p9225
sg5
S'barramornie'
p9226
ssS'4857'
p9227
(dp9228
g3
S'qld'
p9229
sg5
S'silkwood east'
p9230
ssS'4856'
p9231
(dp9232
g3
S'qld'
p9233
sg5
S'goolboo'
p9234
ssS'2008'
p9235
(dp9236
g3
S'nsw'
p9237
sg5
S'chippendale'
p9238
ssS'2009'
p9239
(dp9240
g3
S'nsw'
p9241
sg5
S'pyrmont'
p9242
ssS'4581'
p9243
(dp9244
g3
S'qld'
p9245
sg5
S'eurong'
p9246
ssS'4580'
p9247
(dp9248
g3
S'qld'
p9249
sg5
S'cooloola'
p9250
ssS'4850'
p9251
(dp9252
g3
S'qld'
p9253
sg5
S'abergowrie'
p9254
ssS'4413'
p9255
(dp9256
g3
S'qld'
p9257
sg5
S'baking board'
p9258
ssS'6963'
p9259
(dp9260
g3
S'wa'
p9261
sg5
S'hamilton hill'
p9262
ssS'4410'
p9263
(dp9264
g3
S'qld'
p9265
sg5
S'jandowae'
p9266
ssS'6964'
p9267
(dp9268
g3
S'wa'
p9269
sg5
S'success'
p9270
ssS'3557'
p9271
(dp9272
g3
S'vic'
p9273
sg5
S'barnadown'
p9274
ssS'3556'
p9275
(dp9276
g3
S'vic'
p9277
sg5
S'california gully'
p9278
ssS'3555'
p9279
(dp9280
g3
S'vic'
p9281
sg5
S'big hill'
p9282
ssS'3552'
p9283
(dp9284
g3
S'vic'
p9285
sg5
S'bendigo'
p9286
ssS'3551'
p9287
(dp9288
g3
S'vic'
p9289
sg5
S'arnold'
p9290
ssS'3550'
p9291
(dp9292
g3
S'vic'
p9293
sg5
S'bendigo'
p9294
ssS'6966'
p9295
(dp9296
g3
S'wa'
p9297
sg5
S'kwinana'
p9298
ssS'6066'
p9299
(dp9300
g3
S'wa'
p9301
sg5
S'ballajura'
p9302
ssS'3559'
p9303
(dp9304
g3
S'vic'
p9305
sg5
S'avonmore'
p9306
ssS'3558'
p9307
(dp9308
g3
S'vic'
p9309
sg5
S'burnewang'
p9310
ssS'6067'
p9311
(dp9312
g3
S'wa'
p9313
sg5
S'cullacabardee'
p9314
ssS'6060'
p9315
(dp9316
g3
S'wa'
p9317
sg5
S'dog swamp'
p9318
ssS'8626'
p9319
(dp9320
g3
S'vic'
p9321
sg5
S'camberwell'
p9322
ssS'6061'
p9323
(dp9324
g3
S'wa'
p9325
sg5
S'balga'
p9326
ssS'2911'
p9327
(dp9328
g3
S'act'
p9329
sg5
S'crace'
p9330
ssS'2912'
p9331
(dp9332
g3
S'act'
p9333
sg5
S'gungahlin'
p9334
ssS'8627'
p9335
(dp9336
g3
S'vic'
p9337
sg5
S'camberwell'
p9338
ssS'2914'
p9339
(dp9340
g3
S'act'
p9341
sg5
S'amaroo'
p9342
ssS'1790'
p9343
(dp9344
g3
S'nsw'
p9345
sg5
S'st marys'
p9346
ssS'6848'
p9347
(dp9348
g3
S'wa'
p9349
sg5
S'perth'
p9350
ssS'6304'
p9351
(dp9352
g3
S'wa'
p9353
sg5
S'bally bally'
p9354
ssS'6842'
p9355
(dp9356
g3
S'wa'
p9357
sg5
S'perth'
p9358
ssS'6843'
p9359
(dp9360
g3
S'wa'
p9361
sg5
S'perth'
p9362
ssS'6840'
p9363
(dp9364
g3
S'wa'
p9365
sg5
S'perth'
p9366
ssS'6841'
p9367
(dp9368
g3
S'wa'
p9369
sg5
S'perth'
p9370
ssS'6846'
p9371
(dp9372
g3
S'wa'
p9373
sg5
S'perth'
p9374
ssS'6847'
p9375
(dp9376
g3
S'wa'
p9377
sg5
S'perth'
p9378
ssS'7120'
p9379
(dp9380
g3
S'tas'
p9381
sg5
S'andover'
p9382
ssS'4078'
p9383
(dp9384
g3
S'qld'
p9385
sg5
S'ellen grove'
p9386
ssS'5308'
p9387
(dp9388
g3
S'sa'
p9389
sg5
S'copeville'
p9390
ssS'5309'
p9391
(dp9392
g3
S'sa'
p9393
sg5
S'borrika'
p9394
ssS'6306'
p9395
(dp9396
g3
S'wa'
p9397
sg5
S'aldersyde'
p9398
ssS'5301'
p9399
(dp9400
g3
S'sa'
p9401
sg5
S'carcuma'
p9402
ssS'5302'
p9403
(dp9404
g3
S'sa'
p9405
sg5
S'lameroo'
p9406
ssS'5303'
p9407
(dp9408
g3
S'sa'
p9409
sg5
S'parilla'
p9410
ssS'5304'
p9411
(dp9412
g3
S'sa'
p9413
sg5
S'kringin'
p9414
ssS'5306'
p9415
(dp9416
g3
S'sa'
p9417
sg5
S'wynarka'
p9418
ssS'5307'
p9419
(dp9420
g3
S'sa'
p9421
sg5
S'karoonda'
p9422
ssS'6302'
p9423
(dp9424
g3
S'wa'
p9425
sg5
S'badgin'
p9426
ssS'6956'
p9427
(dp9428
g3
S'wa'
p9429
sg5
S'melville'
p9430
ssS'1660'
p9431
(dp9432
g3
S'nsw'
p9433
sg5
S'mona vale'
p9434
ssS'4076'
p9435
(dp9436
g3
S'qld'
p9437
sg5
S'darra'
p9438
ssS'4179'
p9439
(dp9440
g3
S'qld'
p9441
sg5
S'lota'
p9442
ssS'3140'
p9443
(dp9444
g3
S'vic'
p9445
sg5
S'lilydale'
p9446
ssS'3141'
p9447
(dp9448
g3
S'vic'
p9449
sg5
S'chapel street north'
p9450
ssS'3142'
p9451
(dp9452
g3
S'vic'
p9453
sg5
S'hawksburn'
p9454
ssS'3143'
p9455
(dp9456
g3
S'vic'
p9457
sg5
S'armadale'
p9458
ssS'3144'
p9459
(dp9460
g3
S'vic'
p9461
sg5
S'kooyong'
p9462
ssS'3145'
p9463
(dp9464
g3
S'vic'
p9465
sg5
S'caulfield east'
p9466
ssS'3146'
p9467
(dp9468
g3
S'vic'
p9469
sg5
S'glen iris'
p9470
ssS'3147'
p9471
(dp9472
g3
S'vic'
p9473
sg5
S'ashburton'
p9474
ssS'3148'
p9475
(dp9476
g3
S'vic'
p9477
sg5
S'chadstone'
p9478
ssS'3149'
p9479
(dp9480
g3
S'vic'
p9481
sg5
S'mount waverley'
p9482
ssS'2827'
p9483
(dp9484
g3
S'nsw'
p9485
sg5
S'bearbong'
p9486
ssS'2820'
p9487
(dp9488
g3
S'nsw'
p9489
sg5
S'apsley'
p9490
ssS'2821'
p9491
(dp9492
g3
S'nsw'
p9493
sg5
S'burroway'
p9494
ssS'2823'
p9495
(dp9496
g3
S'nsw'
p9497
sg5
S'bundemar'
p9498
ssS'5414'
p9499
(dp9500
g3
S'sa'
p9501
sg5
S'manoora'
p9502
ssS'5415'
p9503
(dp9504
g3
S'sa'
p9505
sg5
S'mintaro'
p9506
ssS'5416'
p9507
(dp9508
g3
S'sa'
p9509
sg5
S'farrell flat'
p9510
ssS'5417'
p9511
(dp9512
g3
S'sa'
p9513
sg5
S'baldina'
p9514
ssS'5410'
p9515
(dp9516
g3
S'sa'
p9517
sg5
S'linwood'
p9518
ssS'5411'
p9519
(dp9520
g3
S'sa'
p9521
sg5
S'giles corner'
p9522
ssS'3380'
p9523
(dp9524
g3
S'vic'
p9525
sg5
S'bellellen'
p9526
ssS'3381'
p9527
(dp9528
g3
S'vic'
p9529
sg5
S'barkly'
p9530
ssS'1490'
p9531
(dp9532
g3
S'nsw'
p9533
sg5
S'miranda'
p9534
ssS'4807'
p9535
(dp9536
g3
S'qld'
p9537
sg5
S'airdmillan'
p9538
ssS'2603'
p9539
(dp9540
g3
S'act'
p9541
sg5
S'forrest'
p9542
ssS'5418'
p9543
(dp9544
g3
S'sa'
p9545
sg5
S'collinsville'
p9546
ssS'5419'
p9547
(dp9548
g3
S'sa'
p9549
sg5
S'canowie'
p9550
ssS'3388'
p9551
(dp9552
g3
S'vic'
p9553
sg5
S'banyena'
p9554
ssS'1401'
p9555
(dp9556
g3
S'nsw'
p9557
sg5
S'broadway'
p9558
ssS'4215'
p9559
(dp9560
g3
S'qld'
p9561
sg5
S'australia fair'
p9562
ssS'4214'
p9563
(dp9564
g3
S'qld'
p9565
sg5
S'arundel'
p9566
ssS'4217'
p9567
(dp9568
g3
S'qld'
p9569
sg5
S'benowa'
p9570
ssS'4216'
p9571
(dp9572
g3
S'qld'
p9573
sg5
S'biggera waters'
p9574
ssS'4211'
p9575
(dp9576
g3
S'qld'
p9577
sg5
S'advancetown'
p9578
ssS'4210'
p9579
(dp9580
g3
S'qld'
p9581
sg5
S'guanaba'
p9582
ssS'4213'
p9583
(dp9584
g3
S'qld'
p9585
sg5
S'austinville'
p9586
ssS'4212'
p9587
(dp9588
g3
S'qld'
p9589
sg5
S'helensvale'
p9590
ssS'1335'
p9591
(dp9592
g3
S'nsw'
p9593
sg5
S'potts point'
p9594
ssS'4219'
p9595
(dp9596
g3
S'qld'
p9597
sg5
S'west burleigh'
p9598
ssS'4218'
p9599
(dp9600
g3
S'qld'
p9601
sg5
S'broadbeach'
p9602
ssS'6932'
p9603
(dp9604
g3
S'wa'
p9605
sg5
S'inglewood'
p9606
ssS'6933'
p9607
(dp9608
g3
S'wa'
p9609
sg5
S'bayswater'
p9610
ssS'6937'
p9611
(dp9612
g3
S'wa'
p9613
sg5
S'tuart hill'
p9614
ssS'6934'
p9615
(dp9616
g3
S'wa'
p9617
sg5
S'bassendean'
p9618
ssS'6935'
p9619
(dp9620
g3
S'wa'
p9621
sg5
S'guildford'
p9622
ssS'6938'
p9623
(dp9624
g3
S'wa'
p9625
sg5
S'tuart hill'
p9626
ssS'6939'
p9627
(dp9628
g3
S'wa'
p9629
sg5
S'tuart hill'
p9630
ssS'8120'
p9631
(dp9632
g3
S'vic'
p9633
sg5
S'melbourne'
p9634
ssS'5577'
p9635
(dp9636
g3
S'sa'
p9637
sg5
S'foul bay'
p9638
ssS'5576'
p9639
(dp9640
g3
S'sa'
p9641
sg5
S'honiton'
p9642
ssS'5575'
p9643
(dp9644
g3
S'sa'
p9645
sg5
S'bluff beach'
p9646
ssS'5573'
p9647
(dp9648
g3
S'sa'
p9649
sg5
S'balgowan'
p9650
ssS'5572'
p9651
(dp9652
g3
S'sa'
p9653
sg5
S'arthurton'
p9654
ssS'5571'
p9655
(dp9656
g3
S'sa'
p9657
sg5
S'ardrossan'
p9658
ssS'5570'
p9659
(dp9660
g3
S'sa'
p9661
sg5
S'clinton'
p9662
ssS'3093'
p9663
(dp9664
g3
S'vic'
p9665
sg5
S'lower plenty'
p9666
ssS'3090'
p9667
(dp9668
g3
S'vic'
p9669
sg5
S'plenty'
p9670
ssS'3091'
p9671
(dp9672
g3
S'vic'
p9673
sg5
S'yarrambat'
p9674
ssS'3096'
p9675
(dp9676
g3
S'vic'
p9677
sg5
S'wattle glen'
p9678
ssS'3097'
p9679
(dp9680
g3
S'vic'
p9681
sg5
S'bend of islands'
p9682
ssS'3094'
p9683
(dp9684
g3
S'vic'
p9685
sg5
S'montmorency'
p9686
ssS'3095'
p9687
(dp9688
g3
S'vic'
p9689
sg5
S'eltham'
p9690
ssS'3099'
p9691
(dp9692
g3
S'vic'
p9693
sg5
S'arthurs creek'
p9694
ssS'1493'
p9695
(dp9696
g3
S'nsw'
p9697
sg5
S'hurstville'
p9698
ssS'4101'
p9699
(dp9700
g3
S'qld'
p9701
sg5
S'highgate hill'
p9702
ssS'4103'
p9703
(dp9704
g3
S'qld'
p9705
sg5
S'annerley'
p9706
ssS'4102'
p9707
(dp9708
g3
S'qld'
p9709
sg5
S'buranda'
p9710
ssS'4105'
p9711
(dp9712
g3
S'qld'
p9713
sg5
S'moorooka'
p9714
ssS'4104'
p9715
(dp9716
g3
S'qld'
p9717
sg5
S'yeronga'
p9718
ssS'4107'
p9719
(dp9720
g3
S'qld'
p9721
sg5
S'salisbury'
p9722
ssS'3268'
p9723
(dp9724
g3
S'vic'
p9725
sg5
S'ayrford'
p9726
ssS'4109'
p9727
(dp9728
g3
S'qld'
p9729
sg5
S'macgregor'
p9730
ssS'4108'
p9731
(dp9732
g3
S'qld'
p9733
sg5
S'archerfield'
p9734
ssS'3125'
p9735
(dp9736
g3
S'vic'
p9737
sg5
S'bennettswood'
p9738
ssS'4715'
p9739
(dp9740
g3
S'qld'
p9741
sg5
S'biloela'
p9742
ssS'3898'
p9743
(dp9744
g3
S'vic'
p9745
sg5
S'anglers rest'
p9746
ssS'3892'
p9747
(dp9748
g3
S'vic'
p9749
sg5
S'mallacoota'
p9750
ssS'3893'
p9751
(dp9752
g3
S'vic'
p9753
sg5
S'double bridges'
p9754
ssS'3890'
p9755
(dp9756
g3
S'vic'
p9757
sg5
S'buldah'
p9758
ssS'3891'
p9759
(dp9760
g3
S'vic'
p9761
sg5
S'genoa'
p9762
ssS'3896'
p9763
(dp9764
g3
S'vic'
p9765
sg5
S'bindi'
p9766
ssS'3895'
p9767
(dp9768
g3
S'vic'
p9769
sg5
S'doctors flat'
p9770
ssS'3467'
p9771
(dp9772
g3
S'vic'
p9773
sg5
S'avoca'
p9774
ssS'3465'
p9775
(dp9776
g3
S'vic'
p9777
sg5
S'adelaide lead'
p9778
ssS'6613'
p9779
(dp9780
g3
S'wa'
p9781
sg5
S'buntine'
p9782
ssS'6612'
p9783
(dp9784
g3
S'wa'
p9785
sg5
S'jibberding'
p9786
ssS'6616'
p9787
(dp9788
g3
S'wa'
p9789
sg5
S'latham'
p9790
ssS'6614'
p9791
(dp9792
g3
S'wa'
p9793
sg5
S'maya'
p9794
ssS'5950'
p9795
(dp9796
g3
S'sa'
p9797
sg5
S'adelaide airport'
p9798
ssS'3461'
p9799
(dp9800
g3
S'vic'
p9801
sg5
S'bullarto'
p9802
ssS'4075'
p9803
(dp9804
g3
S'qld'
p9805
sg5
S'corinda'
p9806
ssS'4074'
p9807
(dp9808
g3
S'qld'
p9809
sg5
S'jamboree heights'
p9810
ssS'4077'
p9811
(dp9812
g3
S'qld'
p9813
sg5
S'doolandella'
p9814
ssS'3460'
p9815
(dp9816
g3
S'vic'
p9817
sg5
S'basalt'
p9818
ssS'4070'
p9819
(dp9820
g3
S'qld'
p9821
sg5
S'anstead'
p9822
ssS'4073'
p9823
(dp9824
g3
S'qld'
p9825
sg5
S'seventeen mile rocks'
p9826
ssS'4072'
p9827
(dp9828
g3
S'qld'
p9829
sg5
S'university of queensland'
p9830
ssS'3966'
p9831
(dp9832
g3
S'vic'
p9833
sg5
S'binginwarri'
p9834
ssS'3967'
p9835
(dp9836
g3
S'vic'
p9837
sg5
S'hedley'
p9838
ssS'3964'
p9839
(dp9840
g3
S'vic'
p9841
sg5
S'port franklin'
p9842
ssS'3965'
p9843
(dp9844
g3
S'vic'
p9845
sg5
S'port welshpool'
p9846
ssS'3962'
p9847
(dp9848
g3
S'vic'
p9849
sg5
S'agnes'
p9850
ssS'3960'
p9851
(dp9852
g3
S'vic'
p9853
sg5
S'bennison'
p9854
ssS'5082'
p9855
(dp9856
g3
S'sa'
p9857
sg5
S'fitzroy'
p9858
ssS'5081'
p9859
(dp9860
g3
S'sa'
p9861
sg5
S'collinswood'
p9862
ssS'3638'
p9863
(dp9864
g3
S'vic'
p9865
sg5
S'kotupna'
p9866
ssS'3639'
p9867
(dp9868
g3
S'vic'
p9869
sg5
S'barmah'
p9870
ssS'3636'
p9871
(dp9872
g3
S'vic'
p9873
sg5
S'drumanure'
p9874
ssS'3637'
p9875
(dp9876
g3
S'vic'
p9877
sg5
S'waaia'
p9878
ssS'3634'
p9879
(dp9880
g3
S'vic'
p9881
sg5
S'bunbartha'
p9882
ssS'3635'
p9883
(dp9884
g3
S'vic'
p9885
sg5
S'kaarimba'
p9886
ssS'3632'
p9887
(dp9888
g3
S'vic'
p9889
sg5
S'shepparton'
p9890
ssS'3633'
p9891
(dp9892
g3
S'vic'
p9893
sg5
S'congupna'
p9894
ssS'3630'
p9895
(dp9896
g3
S'vic'
p9897
sg5
S'branditt'
p9898
ssS'3631'
p9899
(dp9900
g3
S'vic'
p9901
sg5
S'arcadia'
p9902
ssS'6984'
p9903
(dp9904
g3
S'wa'
p9905
sg5
S'belmont'
p9906
ssS'5085'
p9907
(dp9908
g3
S'sa'
p9909
sg5
S'clearview'
p9910
ssS'5084'
p9911
(dp9912
g3
S'sa'
p9913
sg5
S'blair athol'
p9914
ssS'2345'
p9915
(dp9916
g3
S'nsw'
p9917
sg5
S'attunga'
p9918
ssS'2344'
p9919
(dp9920
g3
S'nsw'
p9921
sg5
S'duri'
p9922
ssS'2347'
p9923
(dp9924
g3
S'nsw'
p9925
sg5
S'banoon'
p9926
ssS'2346'
p9927
(dp9928
g3
S'nsw'
p9929
sg5
S'borah creek'
p9930
ssS'2341'
p9931
(dp9932
g3
S'nsw'
p9933
sg5
S'werris creek'
p9934
ssS'2340'
p9935
(dp9936
g3
S'nsw'
p9937
sg5
S'appleby'
p9938
ssS'2343'
p9939
(dp9940
g3
S'nsw'
p9941
sg5
S'blackville'
p9942
ssS'2342'
p9943
(dp9944
g3
S'nsw'
p9945
sg5
S'currabubula'
p9946
ssS'6107'
p9947
(dp9948
g3
S'wa'
p9949
sg5
S'beckenham'
p9950
ssS'6106'
p9951
(dp9952
g3
S'wa'
p9953
sg5
S'welshpool'
p9954
ssS'6105'
p9955
(dp9956
g3
S'wa'
p9957
sg5
S'cloverdale'
p9958
ssS'6104'
p9959
(dp9960
g3
S'wa'
p9961
sg5
S'ascot'
p9962
ssS'6103'
p9963
(dp9964
g3
S'wa'
p9965
sg5
S'rivervale'
p9966
ssS'6102'
p9967
(dp9968
g3
S'wa'
p9969
sg5
S'bentley'
p9970
ssS'6101'
p9971
(dp9972
g3
S'wa'
p9973
sg5
S'carlisle'
p9974
ssS'6100'
p9975
(dp9976
g3
S'wa'
p9977
sg5
S'burswood'
p9978
ssS'4504'
p9979
(dp9980
g3
S'qld'
p9981
sg5
S'narangba'
p9982
ssS'6393'
p9983
(dp9984
g3
S'wa'
p9985
sg5
S'cordering'
p9986
ssS'3708'
p9987
(dp9988
g3
S'vic'
p9989
sg5
S'tintaldra'
p9990
ssS'3709'
p9991
(dp9992
g3
S'vic'
p9993
sg5
S'burrowye'
p9994
ssS'4468'
p9995
(dp9996
g3
S'qld'
p9997
sg5
S'clara creek'
p9998
ssS'1888'
p9999
(dp10000
g3
S'nsw'
p10001
sg5
S'bankstown'
p10002
ssS'4467'
p10003
(dp10004
g3
S'qld'
p10005
sg5
S'mungallala'
p10006
ssS'3700'
p10007
(dp10008
g3
S'vic'
p10009
sg5
S'bullioh'
p10010
ssS'3701'
p10011
(dp10012
g3
S'vic'
p10013
sg5
S'dartmouth'
p10014
ssS'4462'
p10015
(dp10016
g3
S'qld'
p10017
sg5
S'amby'
p10018
ssS'3707'
p10019
(dp10020
g3
S'vic'
p10021
sg5
S'biggara'
p10022
ssS'3704'
p10023
(dp10024
g3
S'vic'
p10025
sg5
S'koetong'
p10026
ssS'3705'
p10027
(dp10028
g3
S'vic'
p10029
sg5
S'cudgewa'
p10030
ssS'2121'
p10031
(dp10032
g3
S'nsw'
p10033
sg5
S'epping'
p10034
ssS'2120'
p10035
(dp10036
g3
S'nsw'
p10037
sg5
S'pennant hills'
p10038
ssS'2123'
p10039
(dp10040
g3
S'nsw'
p10041
sg5
S'parramatta'
p10042
ssS'2122'
p10043
(dp10044
g3
S'nsw'
p10045
sg5
S'eastwood'
p10046
ssS'2125'
p10047
(dp10048
g3
S'nsw'
p10049
sg5
S'west pennant hills'
p10050
ssS'2124'
p10051
(dp10052
g3
S'nsw'
p10053
sg5
S'parramatta'
p10054
ssS'2127'
p10055
(dp10056
g3
S'nsw'
p10057
sg5
S'homebush bay'
p10058
ssS'2126'
p10059
(dp10060
g3
S'nsw'
p10061
sg5
S'cherrybrook'
p10062
ssS'2129'
p10063
(dp10064
g3
S'nsw'
p10065
sg5
S'sydney markets'
p10066
ssS'2128'
p10067
(dp10068
g3
S'nsw'
p10069
sg5
S'silverwater'
p10070
ssS'6108'
p10071
(dp10072
g3
S'wa'
p10073
sg5
S'thornlie'
p10074
ssS'4660'
p10075
(dp10076
g3
S'qld'
p10077
sg5
S'abington'
p10078
ssS'4662'
p10079
(dp10080
g3
S'qld'
p10081
sg5
S'torbanlea'
p10082
ssS'6038'
p10083
(dp10084
g3
S'wa'
p10085
sg5
S'alkimos'
p10086
ssS'6033'
p10087
(dp10088
g3
S'wa'
p10089
sg5
S'carabooda'
p10090
ssS'6032'
p10091
(dp10092
g3
S'wa'
p10093
sg5
S'nowergup'
p10094
ssS'6031'
p10095
(dp10096
g3
S'wa'
p10097
sg5
S'banksia grove'
p10098
ssS'6030'
p10099
(dp10100
g3
S'wa'
p10101
sg5
S'clarkson'
p10102
ssS'6037'
p10103
(dp10104
g3
S'wa'
p10105
sg5
S'two rocks'
p10106
ssS'6036'
p10107
(dp10108
g3
S'wa'
p10109
sg5
S'butler'
p10110
ssS'6035'
p10111
(dp10112
g3
S'wa'
p10113
sg5
S'yanchep'
p10114
ssS'2410'
p10115
(dp10116
g3
S'nsw'
p10117
sg5
S'blue nobby'
p10118
ssS'5173'
p10119
(dp10120
g3
S'sa'
p10121
sg5
S'aldinga'
p10122
ssS'5172'
p10123
(dp10124
g3
S'sa'
p10125
sg5
S'dingabledinga'
p10126
ssS'5171'
p10127
(dp10128
g3
S'sa'
p10129
sg5
S'blewitt springs'
p10130
ssS'5170'
p10131
(dp10132
g3
S'sa'
p10133
sg5
S'maslin beach'
p10134
ssS'6912'
p10135
(dp10136
g3
S'wa'
p10137
sg5
S'mosman park'
p10138
ssS'5174'
p10139
(dp10140
g3
S'sa'
p10141
sg5
S'sellicks beach'
p10142
ssS'2653'
p10143
(dp10144
g3
S'nsw'
p10145
sg5
S'burra'
p10146
ssS'2652'
p10147
(dp10148
g3
S'nsw'
p10149
sg5
S'boorga'
p10150
ssS'2651'
p10151
(dp10152
g3
S'nsw'
p10153
sg5
S'forest hill'
p10154
ssS'2650'
p10155
(dp10156
g3
S'nsw'
p10157
sg5
S'alfredtown'
p10158
ssS'2656'
p10159
(dp10160
g3
S'nsw'
p10161
sg5
S'brookdale'
p10162
ssS'2655'
p10163
(dp10164
g3
S'nsw'
p10165
sg5
S'birdlip'
p10166
ssS'3414'
p10167
(dp10168
g3
S'vic'
p10169
sg5
S'antwerp'
p10170
ssS'3415'
p10171
(dp10172
g3
S'vic'
p10173
sg5
S'miram'
p10174
ssS'3412'
p10175
(dp10176
g3
S'vic'
p10177
sg5
S'goroke'
p10178
ssS'3413'
p10179
(dp10180
g3
S'vic'
p10181
sg5
S'minimay'
p10182
ssS'3418'
p10183
(dp10184
g3
S'vic'
p10185
sg5
S'broughton'
p10186
ssS'3419'
p10187
(dp10188
g3
S'vic'
p10189
sg5
S'kaniva'
p10190
ssS'6327'
p10191
(dp10192
g3
S'wa'
p10193
sg5
S'redmond'
p10194
ssS'6326'
p10195
(dp10196
g3
S'wa'
p10197
sg5
S'narrikup'
p10198
ssS'4868'
p10199
(dp10200
g3
S'qld'
p10201
sg5
S'bayview heights'
p10202
ssS'4869'
p10203
(dp10204
g3
S'qld'
p10205
sg5
S'bentley park'
p10206
ssS'2019'
p10207
(dp10208
g3
S'nsw'
p10209
sg5
S'banksmeadow'
p10210
ssS'2018'
p10211
(dp10212
g3
S'nsw'
p10213
sg5
S'eastlakes'
p10214
ssS'6321'
p10215
(dp10216
g3
S'wa'
p10217
sg5
S'cranbrook'
p10218
ssS'6320'
p10219
(dp10220
g3
S'wa'
p10221
sg5
S'bobalong'
p10222
ssS'2015'
p10223
(dp10224
g3
S'nsw'
p10225
sg5
S'alexandria'
p10226
ssS'2017'
p10227
(dp10228
g3
S'nsw'
p10229
sg5
S'waterloo'
p10230
ssS'2016'
p10231
(dp10232
g3
S'nsw'
p10233
sg5
S'redfern'
p10234
ssS'2011'
p10235
(dp10236
g3
S'nsw'
p10237
sg5
S'elizabeth bay'
p10238
ssS'2010'
p10239
(dp10240
g3
S'nsw'
p10241
sg5
S'darlinghurst'
p10242
ssS'2013'
p10243
(dp10244
g3
S'nsw'
p10245
sg5
S'strawberry hills'
p10246
ssS'2012'
p10247
(dp10248
g3
S'nsw'
p10249
sg5
S'strawberry hills'
p10250
ssS'3562'
p10251
(dp10252
g3
S'vic'
p10253
sg5
S'torrumbarry'
p10254
ssS'3563'
p10255
(dp10256
g3
S'vic'
p10257
sg5
S'lockington'
p10258
ssS'7256'
p10259
(dp10260
g3
S'tas'
p10261
sg5
S'bungaree'
p10262
ssS'3561'
p10263
(dp10264
g3
S'vic'
p10265
sg5
S'ballendella'
p10266
ssS'3566'
p10267
(dp10268
g3
S'vic'
p10269
sg5
S'gunbower'
p10270
ssS'3567'
p10271
(dp10272
g3
S'vic'
p10273
sg5
S'horfield'
p10274
ssS'3564'
p10275
(dp10276
g3
S'vic'
p10277
sg5
S'campaspe west'
p10278
ssS'7253'
p10279
(dp10280
g3
S'tas'
p10281
sg5
S'bell bay'
p10282
ssS'3568'
p10283
(dp10284
g3
S'vic'
p10285
sg5
S'burkes bridge'
p10286
ssS'7258'
p10287
(dp10288
g3
S'tas'
p10289
sg5
S'breadalbane'
p10290
ssS'7259'
p10291
(dp10292
g3
S'tas'
p10293
sg5
S'myrtle bank'
p10294
ssS'4486'
p10295
(dp10296
g3
S'qld'
p10297
sg5
S'dirranbandi'
p10298
ssS'4487'
p10299
(dp10300
g3
S'qld'
p10301
sg5
S'begonia'
p10302
ssS'4374'
p10303
(dp10304
g3
S'qld'
p10305
sg5
S'dalveen'
p10306
ssS'4481'
p10307
(dp10308
g3
S'qld'
p10309
sg5
S'farrars creek'
p10310
ssS'4482'
p10311
(dp10312
g3
S'qld'
p10313
sg5
S'birdsville'
p10314
ssS'4488'
p10315
(dp10316
g3
S'qld'
p10317
sg5
S'bollon'
p10318
ssS'4489'
p10319
(dp10320
g3
S'qld'
p10321
sg5
S'wyandra'
p10322
ssS'2903'
p10323
(dp10324
g3
S'act'
p10325
sg5
S'erindale centre'
p10326
ssS'2902'
p10327
(dp10328
g3
S'act'
p10329
sg5
S'kambah'
p10330
ssS'2900'
p10331
(dp10332
g3
S'act'
p10333
sg5
S'greenway'
p10334
ssS'2906'
p10335
(dp10336
g3
S'act'
p10337
sg5
S'banks'
p10338
ssS'2905'
p10339
(dp10340
g3
S'act'
p10341
sg5
S'bonython'
p10342
ssS'2904'
p10343
(dp10344
g3
S'act'
p10345
sg5
S'fadden'
p10346
ssS'5312'
p10347
(dp10348
g3
S'sa'
p10349
sg5
S'veitch'
p10350
ssS'5311'
p10351
(dp10352
g3
S'sa'
p10353
sg5
S'alawoona'
p10354
ssS'5310'
p10355
(dp10356
g3
S'sa'
p10357
sg5
S'caliph'
p10358
ssS'1658'
p10359
(dp10360
g3
S'nsw'
p10361
sg5
S'mona vale'
p10362
ssS'1655'
p10363
(dp10364
g3
S'nsw'
p10365
sg5
S'manly'
p10366
ssS'1630'
p10367
(dp10368
g3
S'nsw'
p10369
sg5
S'hornsby'
p10370
ssS'8205'
p10371
(dp10372
g3
S'vic'
p10373
sg5
S'melbourne'
p10374
ssS'3153'
p10375
(dp10376
g3
S'vic'
p10377
sg5
S'bayswater'
p10378
ssS'3152'
p10379
(dp10380
g3
S'vic'
p10381
sg5
S'knox city centre'
p10382
ssS'3151'
p10383
(dp10384
g3
S'vic'
p10385
sg5
S'burwood east'
p10386
ssS'3150'
p10387
(dp10388
g3
S'vic'
p10389
sg5
S'glen waverley'
p10390
ssS'3156'
p10391
(dp10392
g3
S'vic'
p10393
sg5
S'ferntree gully'
p10394
ssS'3155'
p10395
(dp10396
g3
S'vic'
p10397
sg5
S'boronia'
p10398
ssS'3154'
p10399
(dp10400
g3
S'vic'
p10401
sg5
S'the basin'
p10402
ssS'2836'
p10403
(dp10404
g3
S'nsw'
p10405
sg5
S'gemville'
p10406
ssS'3159'
p10407
(dp10408
g3
S'vic'
p10409
sg5
S'menzies creek'
p10410
ssS'3158'
p10411
(dp10412
g3
S'vic'
p10413
sg5
S'upwey'
p10414
ssS'2833'
p10415
(dp10416
g3
S'nsw'
p10417
sg5
S'collarenebri'
p10418
ssS'2832'
p10419
(dp10420
g3
S'nsw'
p10421
sg5
S'angledool'
p10422
ssS'2831'
p10423
(dp10424
g3
S'nsw'
p10425
sg5
S'armatree'
p10426
ssS'2830'
p10427
(dp10428
g3
S'nsw'
p10429
sg5
S'ballimore'
p10430
ssS'3391'
p10431
(dp10432
g3
S'vic'
p10433
sg5
S'brim'
p10434
ssS'3390'
p10435
(dp10436
g3
S'vic'
p10437
sg5
S'kewell'
p10438
ssS'3393'
p10439
(dp10440
g3
S'vic'
p10441
sg5
S'ailsa'
p10442
ssS'3392'
p10443
(dp10444
g3
S'vic'
p10445
sg5
S'minyip'
p10446
ssS'3395'
p10447
(dp10448
g3
S'vic'
p10449
sg5
S'beulah'
p10450
ssS'5401'
p10451
(dp10452
g3
S'sa'
p10453
sg5
S'alma'
p10454
ssS'3396'
p10455
(dp10456
g3
S'vic'
p10457
sg5
S'hopetoun'
p10458
ssS'4507'
p10459
(dp10460
g3
S'qld'
p10461
sg5
S'banksia beach'
p10462
ssS'4506'
p10463
(dp10464
g3
S'qld'
p10465
sg5
S'moorina'
p10466
ssS'1730'
p10467
(dp10468
g3
S'nsw'
p10469
sg5
S'seven hills'
p10470
ssS'1340'
p10471
(dp10472
g3
S'nsw'
p10473
sg5
S'kings cross'
p10474
ssS'6929'
p10475
(dp10476
g3
S'wa'
p10477
sg5
S'mount lawley'
p10478
ssS'6799'
p10479
(dp10480
g3
S'wa'
p10481
sg5
S'home island cocos (keeling) islands'
p10482
ssS'6924'
p10483
(dp10484
g3
S'wa'
p10485
sg5
S'greenwood'
p10486
ssS'8111'
p10487
(dp10488
g3
S'vic'
p10489
sg5
S'melbourne'
p10490
ssS'6921'
p10491
(dp10492
g3
S'wa'
p10493
sg5
S'karrinyup'
p10494
ssS'1885'
p10495
(dp10496
g3
S'nsw'
p10497
sg5
S'bankstown'
p10498
ssS'4895'
p10499
(dp10500
g3
S'qld'
p10501
sg5
S'bloomfield'
p10502
ssS'6922'
p10503
(dp10504
g3
S'wa'
p10505
sg5
S'scarborough'
p10506
ssS'4465'
p10507
(dp10508
g3
S'qld'
p10509
sg5
S'dunkeld'
p10510
ssS'4509'
p10511
(dp10512
g3
S'qld'
p10513
sg5
S'mango hill'
p10514
ssS'5540'
p10515
(dp10516
g3
S'sa'
p10517
sg5
S'bungama'
p10518
ssS'3089'
p10519
(dp10520
g3
S'vic'
p10521
sg5
S'diamond creek'
p10522
ssS'3088'
p10523
(dp10524
g3
S'vic'
p10525
sg5
S'briar hill'
p10526
ssS'3085'
p10527
(dp10528
g3
S'vic'
p10529
sg5
S'macleod'
p10530
ssS'3084'
p10531
(dp10532
g3
S'vic'
p10533
sg5
S'banyule'
p10534
ssS'3087'
p10535
(dp10536
g3
S'vic'
p10537
sg5
S'watsonia'
p10538
ssS'3086'
p10539
(dp10540
g3
S'vic'
p10541
sg5
S'la trobe university'
p10542
ssS'3081'
p10543
(dp10544
g3
S'vic'
p10545
sg5
S'bellfield'
p10546
ssS'3083'
p10547
(dp10548
g3
S'vic'
p10549
sg5
S'bundoora'
p10550
ssS'3082'
p10551
(dp10552
g3
S'vic'
p10553
sg5
S'mill park'
p10554
ssS'8576'
p10555
(dp10556
g3
S'vic'
p10557
sg5
S'ivanhoe'
p10558
ssS'3885'
p10559
(dp10560
g3
S'vic'
p10561
sg5
S'bruthen'
p10562
ssS'3887'
p10563
(dp10564
g3
S'vic'
p10565
sg5
S'lake tyers'
p10566
ssS'3886'
p10567
(dp10568
g3
S'vic'
p10569
sg5
S'newmerella'
p10570
ssS'3880'
p10571
(dp10572
g3
S'vic'
p10573
sg5
S'boole poole'
p10574
ssS'3882'
p10575
(dp10576
g3
S'vic'
p10577
sg5
S'nicholson'
p10578
ssS'3889'
p10579
(dp10580
g3
S'vic'
p10581
sg5
S'bellbird creek'
p10582
ssS'3888'
p10583
(dp10584
g3
S'vic'
p10585
sg5
S'bendoc'
p10586
ssS'6628'
p10587
(dp10588
g3
S'wa'
p10589
sg5
S'tardun'
p10590
ssS'6627'
p10591
(dp10592
g3
S'wa'
p10593
sg5
S'canna'
p10594
ssS'6623'
p10595
(dp10596
g3
S'wa'
p10597
sg5
S'bowgada'
p10598
ssS'6620'
p10599
(dp10600
g3
S'wa'
p10601
sg5
S'perenjori'
p10602
ssS'4008'
p10603
(dp10604
g3
S'qld'
p10605
sg5
S'pinkenba'
p10606
ssS'4009'
p10607
(dp10608
g3
S'qld'
p10609
sg5
S'eagle farm'
p10610
ssS'4860'
p10611
(dp10612
g3
S'qld'
p10613
sg5
S'bamboo creek'
p10614
ssS'4000'
p10615
(dp10616
g3
S'qld'
p10617
sg5
S'brisbane'
p10618
ssS'4001'
p10619
(dp10620
g3
S'qld'
p10621
sg5
S'brisbane'
p10622
ssS'4003'
p10623
(dp10624
g3
S'qld'
p10625
sg5
S'george street'
p10626
ssS'4004'
p10627
(dp10628
g3
S'qld'
p10629
sg5
S'spring hill'
p10630
ssS'4005'
p10631
(dp10632
g3
S'qld'
p10633
sg5
S'new farm'
p10634
ssS'4006'
p10635
(dp10636
g3
S'qld'
p10637
sg5
S'bowen hills'
p10638
ssS'4007'
p10639
(dp10640
g3
S'qld'
p10641
sg5
S'ascot'
p10642
ssS'3971'
p10643
(dp10644
g3
S'vic'
p10645
sg5
S'alberton'
p10646
ssS'3975'
p10647
(dp10648
g3
S'vic'
p10649
sg5
S'lynbrook'
p10650
ssS'3977'
p10651
(dp10652
g3
S'vic'
p10653
sg5
S'cannons creek'
p10654
ssS'3976'
p10655
(dp10656
g3
S'vic'
p10657
sg5
S'hampton park'
p10658
ssS'3979'
p10659
(dp10660
g3
S'vic'
p10661
sg5
S'almurta'
p10662
ssS'3978'
p10663
(dp10664
g3
S'vic'
p10665
sg5
S'cardinia'
p10666
ssS'6218'
p10667
(dp10668
g3
S'wa'
p10669
sg5
S'yarloop'
p10670
ssS'3629'
p10671
(dp10672
g3
S'vic'
p10673
sg5
S'ardmona'
p10674
ssS'3621'
p10675
(dp10676
g3
S'vic'
p10677
sg5
S'koyuga south'
p10678
ssS'3620'
p10679
(dp10680
g3
S'vic'
p10681
sg5
S'kyabram'
p10682
ssS'3623'
p10683
(dp10684
g3
S'vic'
p10685
sg5
S'carag carag'
p10686
ssS'3622'
p10687
(dp10688
g3
S'vic'
p10689
sg5
S'cornelia creek'
p10690
ssS'3624'
p10691
(dp10692
g3
S'vic'
p10693
sg5
S'girgarre'
p10694
ssS'4287'
p10695
(dp10696
g3
S'qld'
p10697
sg5
S'barney view'
p10698
ssS'2330'
p10699
(dp10700
g3
S'nsw'
p10701
sg5
S'appletree flat'
p10702
ssS'1595'
p10703
(dp10704
g3
S'nsw'
p10705
sg5
S'lane cove'
p10706
ssS'4716'
p10707
(dp10708
g3
S'qld'
p10709
sg5
S'lawgi dawes'
p10710
ssS'2333'
p10711
(dp10712
g3
S'nsw'
p10713
sg5
S'baerami'
p10714
ssS'2334'
p10715
(dp10716
g3
S'nsw'
p10717
sg5
S'greta'
p10718
ssS'2335'
p10719
(dp10720
g3
S'nsw'
p10721
sg5
S'belford'
p10722
ssS'2336'
p10723
(dp10724
g3
S'nsw'
p10725
sg5
S'aberdeen'
p10726
ssS'2337'
p10727
(dp10728
g3
S'nsw'
p10729
sg5
S'belltrees'
p10730
ssS'2338'
p10731
(dp10732
g3
S'nsw'
p10733
sg5
S'ardglen'
p10734
ssS'2339'
p10735
(dp10736
g3
S'nsw'
p10737
sg5
S'big jacks creek'
p10738
ssS'4718'
p10739
(dp10740
g3
S'qld'
p10741
sg5
S'bauhinia'
p10742
ssS'1597'
p10743
(dp10744
g3
S'nsw'
p10745
sg5
S'lane cove'
p10746
ssS'2537'
p10747
(dp10748
g3
S'nsw'
p10749
sg5
S'bergalia'
p10750
ssS'6034'
p10751
(dp10752
g3
S'wa'
p10753
sg5
S'eglinton'
p10754
ssS'1590'
p10755
(dp10756
g3
S'nsw'
p10757
sg5
S'st leonards'
p10758
ssS'3715'
p10759
(dp10760
g3
S'vic'
p10761
sg5
S'ancona'
p10762
ssS'3714'
p10763
(dp10764
g3
S'vic'
p10765
sg5
S'acheron'
p10766
ssS'3717'
p10767
(dp10768
g3
S'vic'
p10769
sg5
S'flowerdale'
p10770
ssS'3711'
p10771
(dp10772
g3
S'vic'
p10773
sg5
S'buxton'
p10774
ssS'3713'
p10775
(dp10776
g3
S'vic'
p10777
sg5
S'eildon'
p10778
ssS'3712'
p10779
(dp10780
g3
S'vic'
p10781
sg5
S'rubicon'
p10782
ssS'3719'
p10783
(dp10784
g3
S'vic'
p10785
sg5
S'gobur'
p10786
ssS'3718'
p10787
(dp10788
g3
S'vic'
p10789
sg5
S'molesworth'
p10790
ssS'4479'
p10791
(dp10792
g3
S'qld'
p10793
sg5
S'cooladdi'
p10794
ssS'4478'
p10795
(dp10796
g3
S'qld'
p10797
sg5
S'bayrick'
p10798
ssS'2658'
p10799
(dp10800
g3
S'nsw'
p10801
sg5
S'grubben'
p10802
ssS'4471'
p10803
(dp10804
g3
S'qld'
p10805
sg5
S'claverton'
p10806
ssS'4470'
p10807
(dp10808
g3
S'qld'
p10809
sg5
S'bakers bend'
p10810
ssS'4472'
p10811
(dp10812
g3
S'qld'
p10813
sg5
S'blackall'
p10814
ssS'4475'
p10815
(dp10816
g3
S'qld'
p10817
sg5
S'cheepie'
p10818
ssS'4474'
p10819
(dp10820
g3
S'qld'
p10821
sg5
S'adavale'
p10822
ssS'4477'
p10823
(dp10824
g3
S'qld'
p10825
sg5
S'augathella'
p10826
ssS'6006'
p10827
(dp10828
g3
S'wa'
p10829
sg5
S'north perth'
p10830
ssS'6007'
p10831
(dp10832
g3
S'wa'
p10833
sg5
S'leederville'
p10834
ssS'6004'
p10835
(dp10836
g3
S'wa'
p10837
sg5
S'east perth'
p10838
ssS'6005'
p10839
(dp10840
g3
S'wa'
p10841
sg5
S'kings park'
p10842
ssS'6003'
p10843
(dp10844
g3
S'wa'
p10845
sg5
S'highgate'
p10846
ssS'2488'
p10847
(dp10848
g3
S'nsw'
p10849
sg5
S'bogangar'
p10850
ssS'2489'
p10851
(dp10852
g3
S'nsw'
p10853
sg5
S'hastings point'
p10854
ssS'2486'
p10855
(dp10856
g3
S'nsw'
p10857
sg5
S'banora point'
p10858
ssS'2487'
p10859
(dp10860
g3
S'nsw'
p10861
sg5
S'casuarina'
p10862
ssS'2484'
p10863
(dp10864
g3
S'nsw'
p10865
sg5
S'back creek'
p10866
ssS'2485'
p10867
(dp10868
g3
S'nsw'
p10869
sg5
S'tweed heads'
p10870
ssS'2482'
p10871
(dp10872
g3
S'nsw'
p10873
sg5
S'goonengerry'
p10874
ssS'2483'
p10875
(dp10876
g3
S'nsw'
p10877
sg5
S'billinudgel'
p10878
ssS'2480'
p10879
(dp10880
g3
S'nsw'
p10881
sg5
S'back creek'
p10882
ssS'2481'
p10883
(dp10884
g3
S'nsw'
p10885
sg5
S'broken head'
p10886
ssS'2464'
p10887
(dp10888
g3
S'nsw'
p10889
sg5
S'angourie'
p10890
ssS'5344'
p10891
(dp10892
g3
S'sa'
p10893
sg5
S'glossop'
p10894
ssS'2466'
p10895
(dp10896
g3
S'nsw'
p10897
sg5
S'iluka'
p10898
ssS'2460'
p10899
(dp10900
g3
S'nsw'
p10901
sg5
S'alice'
p10902
ssS'2462'
p10903
(dp10904
g3
S'nsw'
p10905
sg5
S'calliope'
p10906
ssS'2463'
p10907
(dp10908
g3
S'nsw'
p10909
sg5
S'ashby'
p10910
ssS'6392'
p10911
(dp10912
g3
S'wa'
p10913
sg5
S'bokal'
p10914
ssS'5144'
p10915
(dp10916
g3
S'sa'
p10917
sg5
S'carey gully'
p10918
ssS'5142'
p10919
(dp10920
g3
S'sa'
p10921
sg5
S'uraidla'
p10922
ssS'5346'
p10923
(dp10924
g3
S'sa'
p10925
sg5
S'cobdogla'
p10926
ssS'5140'
p10927
(dp10928
g3
S'sa'
p10929
sg5
S'greenhill'
p10930
ssS'5141'
p10931
(dp10932
g3
S'sa'
p10933
sg5
S'horsnell gully'
p10934
ssS'3401'
p10935
(dp10936
g3
S'vic'
p10937
sg5
S'blackheath'
p10938
ssS'3400'
p10939
(dp10940
g3
S'vic'
p10941
sg5
S'horsham'
p10942
ssS'3402'
p10943
(dp10944
g3
S'vic'
p10945
sg5
S'horsham'
p10946
ssS'3407'
p10947
(dp10948
g3
S'vic'
p10949
sg5
S'balmoral'
p10950
ssS'3409'
p10951
(dp10952
g3
S'vic'
p10953
sg5
S'arapiles'
p10954
ssS'5340'
p10955
(dp10956
g3
S'sa'
p10957
sg5
S'mundic creek'
p10958
ssS'5341'
p10959
(dp10960
g3
S'sa'
p10961
sg5
S'calperum'
p10962
ssS'4875'
p10963
(dp10964
g3
S'qld'
p10965
sg5
S'badu island'
p10966
ssS'4874'
p10967
(dp10968
g3
S'qld'
p10969
sg5
S'evans landing'
p10970
ssS'4877'
p10971
(dp10972
g3
S'qld'
p10973
sg5
S'craiglie'
p10974
ssS'4876'
p10975
(dp10976
g3
S'qld'
p10977
sg5
S'bamaga'
p10978
ssS'4871'
p10979
(dp10980
g3
S'qld'
p10981
sg5
S'abingdon downs'
p10982
ssS'1023'
p10983
(dp10984
g3
S'nsw'
p10985
sg5
S'sydney'
p10986
ssS'4873'
p10987
(dp10988
g3
S'qld'
p10989
sg5
S'bamboo'
p10990
ssS'4872'
p10991
(dp10992
g3
S'qld'
p10993
sg5
S'barrine'
p10994
ssS'5343'
p10995
(dp10996
g3
S'sa'
p10997
sg5
S'berri'
p10998
ssS'4879'
p10999
(dp11000
g3
S'qld'
p11001
sg5
S'clifton beach'
p11002
ssS'4878'
p11003
(dp11004
g3
S'qld'
p11005
sg5
S'barron'
p11006
ssS'2068'
p11007
(dp11008
g3
S'nsw'
p11009
sg5
S'castlecrag'
p11010
ssS'1186'
p11011
(dp11012
g3
S'nsw'
p11013
sg5
S'sydney'
p11014
ssS'2798'
p11015
(dp11016
g3
S'nsw'
p11017
sg5
S'byng'
p11018
ssS'2799'
p11019
(dp11020
g3
S'nsw'
p11021
sg5
S'barry'
p11022
ssS'6316'
p11023
(dp11024
g3
S'wa'
p11025
sg5
S'boyerine'
p11026
ssS'6317'
p11027
(dp11028
g3
S'wa'
p11029
sg5
S'badgebup'
p11030
ssS'6315'
p11031
(dp11032
g3
S'wa'
p11033
sg5
S'arthur river'
p11034
ssS'2060'
p11035
(dp11036
g3
S'nsw'
p11037
sg5
S'hmas waterhen'
p11038
ssS'2061'
p11039
(dp11040
g3
S'nsw'
p11041
sg5
S'kirribilli'
p11042
ssS'2062'
p11043
(dp11044
g3
S'nsw'
p11045
sg5
S'cammeray'
p11046
ssS'2063'
p11047
(dp11048
g3
S'nsw'
p11049
sg5
S'northbridge'
p11050
ssS'2064'
p11051
(dp11052
g3
S'nsw'
p11053
sg5
S'artarmon'
p11054
ssS'1184'
p11055
(dp11056
g3
S'nsw'
p11057
sg5
S'sydney'
p11058
ssS'2066'
p11059
(dp11060
g3
S'nsw'
p11061
sg5
S'lane cove'
p11062
ssS'2067'
p11063
(dp11064
g3
S'nsw'
p11065
sg5
S'chatswood'
p11066
ssS'5421'
p11067
(dp11068
g3
S'sa'
p11069
sg5
S'franklyn'
p11070
ssS'1183'
p11071
(dp11072
g3
S'nsw'
p11073
sg5
S'sydney'
p11074
ssS'1180'
p11075
(dp11076
g3
S'nsw'
p11077
sg5
S'sydney'
p11078
ssS'5422'
p11079
(dp11080
g3
S'sa'
p11081
sg5
S'cavenagh'
p11082
ssS'5098'
p11083
(dp11084
g3
S'sa'
p11085
sg5
S'ingle farm'
p11086
ssS'6323'
p11087
(dp11088
g3
S'wa'
p11089
sg5
S'kendenup'
p11090
ssS'3579'
p11091
(dp11092
g3
S'vic'
p11093
sg5
S'appin'
p11094
ssS'3575'
p11095
(dp11096
g3
S'vic'
p11097
sg5
S'gladfield'
p11098
ssS'5091'
p11099
(dp11100
g3
S'sa'
p11101
sg5
S'banksia park'
p11102
ssS'5092'
p11103
(dp11104
g3
S'sa'
p11105
sg5
S'modbury'
p11106
ssS'3576'
p11107
(dp11108
g3
S'vic'
p11109
sg5
S'durham ox'
p11110
ssS'3571'
p11111
(dp11112
g3
S'vic'
p11113
sg5
S'dingee'
p11114
ssS'3570'
p11115
(dp11116
g3
S'vic'
p11117
sg5
S'auchmore'
p11118
ssS'3573'
p11119
(dp11120
g3
S'vic'
p11121
sg5
S'calivil'
p11122
ssS'3572'
p11123
(dp11124
g3
S'vic'
p11125
sg5
S'milloo'
p11126
ssS'2666'
p11127
(dp11128
g3
S'nsw'
p11129
sg5
S'combaning'
p11130
ssS'4496'
p11131
(dp11132
g3
S'qld'
p11133
sg5
S'north talwood'
p11134
ssS'2665'
p11135
(dp11136
g3
S'nsw'
p11137
sg5
S'ardlethan'
p11138
ssS'4493'
p11139
(dp11140
g3
S'qld'
p11141
sg5
S'hungerford'
p11142
ssS'2663'
p11143
(dp11144
g3
S'nsw'
p11145
sg5
S'bundure'
p11146
ssS'2660'
p11147
(dp11148
g3
S'nsw'
p11149
sg5
S'carnsdale'
p11150
ssS'2661'
p11151
(dp11152
g3
S'nsw'
p11153
sg5
S'kapooka'
p11154
ssS'2668'
p11155
(dp11156
g3
S'nsw'
p11157
sg5
S'barmedman'
p11158
ssS'2669'
p11159
(dp11160
g3
S'nsw'
p11161
sg5
S'bygalorie'
p11162
ssS'6820'
p11163
(dp11164
g3
S'wa'
p11165
sg5
S'perth'
p11166
ssS'6827'
p11167
(dp11168
g3
S'wa'
p11169
sg5
S'perth'
p11170
ssS'5322'
p11171
(dp11172
g3
S'sa'
p11173
sg5
S'golden heights'
p11174
ssS'5320'
p11175
(dp11176
g3
S'sa'
p11177
sg5
S'beatty'
p11178
ssS'5321'
p11179
(dp11180
g3
S'sa'
p11181
sg5
S'cadell'
p11182
ssS'1640'
p11183
(dp11184
g3
S'nsw'
p11185
sg5
S'frenchs forest'
p11186
ssS'2808'
p11187
(dp11188
g3
S'nsw'
p11189
sg5
S'wyangala'
p11190
ssS'2809'
p11191
(dp11192
g3
S'nsw'
p11193
sg5
S'greenethorpe'
p11194
ssS'3168'
p11195
(dp11196
g3
S'vic'
p11197
sg5
S'clayton'
p11198
ssS'3169'
p11199
(dp11200
g3
S'vic'
p11201
sg5
S'clarinda'
p11202
ssS'3166'
p11203
(dp11204
g3
S'vic'
p11205
sg5
S'hughesdale'
p11206
ssS'3167'
p11207
(dp11208
g3
S'vic'
p11209
sg5
S'oakleigh south'
p11210
ssS'3164'
p11211
(dp11212
g3
S'vic'
p11213
sg5
S'dandenong south'
p11214
ssS'3165'
p11215
(dp11216
g3
S'vic'
p11217
sg5
S'bentleigh east'
p11218
ssS'3162'
p11219
(dp11220
g3
S'vic'
p11221
sg5
S'caulfield'
p11222
ssS'3163'
p11223
(dp11224
g3
S'vic'
p11225
sg5
S'carnegie'
p11226
ssS'3160'
p11227
(dp11228
g3
S'vic'
p11229
sg5
S'belgrave'
p11230
ssS'3161'
p11231
(dp11232
g3
S'vic'
p11233
sg5
S'caulfield junction'
p11234
ssS'5432'
p11235
(dp11236
g3
S'sa'
p11237
sg5
S'belton'
p11238
ssS'5433'
p11239
(dp11240
g3
S'sa'
p11241
sg5
S'bruce'
p11242
ssS'1423'
p11243
(dp11244
g3
S'nsw'
p11245
sg5
S'strawberry hills'
p11246
ssS'5431'
p11247
(dp11248
g3
S'sa'
p11249
sg5
S'amyton'
p11250
ssS'1425'
p11251
(dp11252
g3
S'nsw'
p11253
sg5
S'strawberry hills'
p11254
ssS'1424'
p11255
(dp11256
g3
S'nsw'
p11257
sg5
S'strawberry hills'
p11258
ssS'5434'
p11259
(dp11260
g3
S'sa'
p11261
sg5
S'barndioota'
p11262
ssS'1426'
p11263
(dp11264
g3
S'nsw'
p11265
sg5
S'strawberry hills'
p11266
ssS'3364'
p11267
(dp11268
g3
S'vic'
p11269
sg5
S'allendale'
p11270
ssS'1428'
p11271
(dp11272
g3
S'nsw'
p11273
sg5
S'strawberry hills'
p11274
ssS'3360'
p11275
(dp11276
g3
S'vic'
p11277
sg5
S'linton'
p11278
ssS'3361'
p11279
(dp11280
g3
S'vic'
p11281
sg5
S'bradvale'
p11282
ssS'3363'
p11283
(dp11284
g3
S'vic'
p11285
sg5
S'creswick'
p11286
ssS'1205'
p11287
(dp11288
g3
S'nsw'
p11289
sg5
S'sydney'
p11290
ssS'2405'
p11291
(dp11292
g3
S'nsw'
p11293
sg5
S'boomi'
p11294
ssS'1204'
p11295
(dp11296
g3
S'nsw'
p11297
sg5
S'sydney'
p11298
ssS'2402'
p11299
(dp11300
g3
S'nsw'
p11301
sg5
S'balfours peak'
p11302
ssS'2403'
p11303
(dp11304
g3
S'nsw'
p11305
sg5
S'delungra'
p11306
ssS'4272'
p11307
(dp11308
g3
S'qld'
p11309
sg5
S'mount tamborine'
p11310
ssS'8107'
p11311
(dp11312
g3
S'vic'
p11313
sg5
S'melbourne'
p11314
ssS'4270'
p11315
(dp11316
g3
S'qld'
p11317
sg5
S'tamborine'
p11318
ssS'2400'
p11319
(dp11320
g3
S'nsw'
p11321
sg5
S'ashley'
p11322
ssS'8103'
p11323
(dp11324
g3
S'vic'
p11325
sg5
S'melbourne'
p11326
ssS'8102'
p11327
(dp11328
g3
S'vic'
p11329
sg5
S'melbourne'
p11330
ssS'2401'
p11331
(dp11332
g3
S'nsw'
p11333
sg5
S'gravesend'
p11334
ssS'8108'
p11335
(dp11336
g3
S'vic'
p11337
sg5
S'melbourne'
p11338
ssS'1355'
p11339
(dp11340
g3
S'nsw'
p11341
sg5
S'bondi junction'
p11342
ssS'5555'
p11343
(dp11344
g3
S'sa'
p11345
sg5
S'alford'
p11346
ssS'5554'
p11347
(dp11348
g3
S'sa'
p11349
sg5
S'boors plain'
p11350
ssS'6488'
p11351
(dp11352
g3
S'wa'
p11353
sg5
S'north trayning'
p11354
ssS'5556'
p11355
(dp11356
g3
S'sa'
p11357
sg5
S'north beach'
p11358
ssS'5550'
p11359
(dp11360
g3
S'sa'
p11361
sg5
S'beaufort'
p11362
ssS'5552'
p11363
(dp11364
g3
S'sa'
p11365
sg5
S'kainton'
p11366
ssS'6951'
p11367
(dp11368
g3
S'wa'
p11369
sg5
S'south perth'
p11370
ssS'6480'
p11371
(dp11372
g3
S'wa'
p11373
sg5
S'nukarni'
p11374
ssS'5558'
p11375
(dp11376
g3
S'sa'
p11377
sg5
S'agery'
p11378
ssS'6484'
p11379
(dp11380
g3
S'wa'
p11381
sg5
S'bullfinch'
p11382
ssS'6485'
p11383
(dp11384
g3
S'wa'
p11385
sg5
S'cowcowing'
p11386
ssS'4861'
p11387
(dp11388
g3
S'qld'
p11389
sg5
S'babinda'
p11390
ssS'6244'
p11391
(dp11392
g3
S'wa'
p11393
sg5
S'boyup brook'
p11394
ssS'4885'
p11395
(dp11396
g3
S'qld'
p11397
sg5
S'butchers creek'
p11398
ssS'1515'
p11399
(dp11400
g3
S'nsw'
p11401
sg5
S'west chatswood'
p11402
ssS'4865'
p11403
(dp11404
g3
S'qld'
p11405
sg5
S'goldsborough'
p11406
ssS'4225'
p11407
(dp11408
g3
S'qld'
p11409
sg5
S'bilinga'
p11410
ssS'6770'
p11411
(dp11412
g3
S'wa'
p11413
sg5
S'halls creek'
p11414
ssS'4886'
p11415
(dp11416
g3
S'qld'
p11417
sg5
S'beatrice'
p11418
ssS'6556'
p11419
(dp11420
g3
S'wa'
p11421
sg5
S'beechina'
p11422
ssS'6940'
p11423
(dp11424
g3
S'wa'
p11425
sg5
S'tuart hill'
p11426
ssS'4887'
p11427
(dp11428
g3
S'qld'
p11429
sg5
S'herberton'
p11430
ssS'6558'
p11431
(dp11432
g3
S'wa'
p11433
sg5
S'wooroloo'
p11434
ssS'3184'
p11435
(dp11436
g3
S'vic'
p11437
sg5
S'brighton road'
p11438
ssS'3185'
p11439
(dp11440
g3
S'vic'
p11441
sg5
S'elsternwick'
p11442
ssS'3186'
p11443
(dp11444
g3
S'vic'
p11445
sg5
S'brighton'
p11446
ssS'3187'
p11447
(dp11448
g3
S'vic'
p11449
sg5
S'brighton east'
p11450
ssS'3180'
p11451
(dp11452
g3
S'vic'
p11453
sg5
S'knoxfield'
p11454
ssS'3181'
p11455
(dp11456
g3
S'vic'
p11457
sg5
S'prahran'
p11458
ssS'3182'
p11459
(dp11460
g3
S'vic'
p11461
sg5
S'st kilda'
p11462
ssS'3183'
p11463
(dp11464
g3
S'vic'
p11465
sg5
S'balaclava'
p11466
ssS'7470'
p11467
(dp11468
g3
S'tas'
p11469
sg5
S'rosebery'
p11470
ssS'6944'
p11471
(dp11472
g3
S'wa'
p11473
sg5
S'malaga'
p11474
ssS'3188'
p11475
(dp11476
g3
S'vic'
p11477
sg5
S'hampton east'
p11478
ssS'3189'
p11479
(dp11480
g3
S'vic'
p11481
sg5
S'moorabbin'
p11482
ssS'6639'
p11483
(dp11484
g3
S'wa'
p11485
sg5
S'sandstone'
p11486
ssS'6638'
p11487
(dp11488
g3
S'wa'
p11489
sg5
S'cooladar hill'
p11490
ssS'6631'
p11491
(dp11492
g3
S'wa'
p11493
sg5
S'pindar'
p11494
ssS'6630'
p11495
(dp11496
g3
S'wa'
p11497
sg5
S'devils creek'
p11498
ssS'2069'
p11499
(dp11500
g3
S'nsw'
p11501
sg5
S'castle cove'
p11502
ssS'6635'
p11503
(dp11504
g3
S'wa'
p11505
sg5
S'south murchison'
p11506
ssS'4019'
p11507
(dp11508
g3
S'qld'
p11509
sg5
S'clontarf'
p11510
ssS'4018'
p11511
(dp11512
g3
S'qld'
p11513
sg5
S'fitzgibbon'
p11514
ssS'4013'
p11515
(dp11516
g3
S'qld'
p11517
sg5
S'northgate'
p11518
ssS'4012'
p11519
(dp11520
g3
S'qld'
p11521
sg5
S'nundah'
p11522
ssS'4011'
p11523
(dp11524
g3
S'qld'
p11525
sg5
S'clayfield'
p11526
ssS'4010'
p11527
(dp11528
g3
S'qld'
p11529
sg5
S'albion'
p11530
ssS'4017'
p11531
(dp11532
g3
S'qld'
p11533
sg5
S'bracken ridge'
p11534
ssS'4014'
p11535
(dp11536
g3
S'qld'
p11537
sg5
S'banyo'
p11538
ssS'3988'
p11539
(dp11540
g3
S'vic'
p11541
sg5
S'mountain view'
p11542
ssS'3984'
p11543
(dp11544
g3
S'vic'
p11545
sg5
S'adams estate'
p11546
ssS'3987'
p11547
(dp11548
g3
S'vic'
p11549
sg5
S'nyora'
p11550
ssS'3980'
p11551
(dp11552
g3
S'vic'
p11553
sg5
S'blind bight'
p11554
ssS'3981'
p11555
(dp11556
g3
S'vic'
p11557
sg5
S'bayles'
p11558
ssS'1890'
p11559
(dp11560
g3
S'nsw'
p11561
sg5
S'ingleburn'
p11562
ssS'2299'
p11563
(dp11564
g3
S'nsw'
p11565
sg5
S'jesmond'
p11566
ssS'6125'
p11567
(dp11568
g3
S'wa'
p11569
sg5
S'hopeland'
p11570
ssS'6124'
p11571
(dp11572
g3
S'wa'
p11573
sg5
S'jarrahdale'
p11574
ssS'6126'
p11575
(dp11576
g3
S'wa'
p11577
sg5
S'keysbrook'
p11578
ssS'6121'
p11579
(dp11580
g3
S'wa'
p11581
sg5
S'oakford'
p11582
ssS'6123'
p11583
(dp11584
g3
S'wa'
p11585
sg5
S'mundijong'
p11586
ssS'6122'
p11587
(dp11588
g3
S'wa'
p11589
sg5
S'byford'
p11590
ssS'2323'
p11591
(dp11592
g3
S'nsw'
p11593
sg5
S'ashtonfield'
p11594
ssS'2322'
p11595
(dp11596
g3
S'nsw'
p11597
sg5
S'beresfield'
p11598
ssS'2321'
p11599
(dp11600
g3
S'nsw'
p11601
sg5
S'berry park'
p11602
ssS'2320'
p11603
(dp11604
g3
S'nsw'
p11605
sg5
S'aberglasslyn'
p11606
ssS'2327'
p11607
(dp11608
g3
S'nsw'
p11609
sg5
S'kurri kurri'
p11610
ssS'2326'
p11611
(dp11612
g3
S'nsw'
p11613
sg5
S'abermain'
p11614
ssS'2325'
p11615
(dp11616
g3
S'nsw'
p11617
sg5
S'aberdare'
p11618
ssS'2324'
p11619
(dp11620
g3
S'nsw'
p11621
sg5
S'balickera'
p11622
ssS'1891'
p11623
(dp11624
g3
S'nsw'
p11625
sg5
S'milperra'
p11626
ssS'2329'
p11627
(dp11628
g3
S'nsw'
p11629
sg5
S'borambil'
p11630
ssS'2328'
p11631
(dp11632
g3
S'nsw'
p11633
sg5
S'bureen'
p11634
ssS'1445'
p11635
(dp11636
g3
S'nsw'
p11637
sg5
S'rosebery'
p11638
ssS'4709'
p11639
(dp11640
g3
S'qld'
p11641
sg5
S'tieri'
p11642
ssS'2293'
p11643
(dp11644
g3
S'nsw'
p11645
sg5
S'maryville'
p11646
ssS'1299'
p11647
(dp11648
g3
S'nsw'
p11649
sg5
S'sydney'
p11650
ssS'2292'
p11651
(dp11652
g3
S'nsw'
p11653
sg5
S'broadmeadow'
p11654
ssS'3760'
p11655
(dp11656
g3
S'vic'
p11657
sg5
S'smiths gully'
p11658
ssS'7254'
p11659
(dp11660
g3
S'tas'
p11661
sg5
S'bellingham'
p11662
ssS'3763'
p11663
(dp11664
g3
S'vic'
p11665
sg5
S'kinglake'
p11666
ssS'3764'
p11667
(dp11668
g3
S'vic'
p11669
sg5
S'forbes'
p11670
ssS'3765'
p11671
(dp11672
g3
S'vic'
p11673
sg5
S'montrose'
p11674
ssS'3766'
p11675
(dp11676
g3
S'vic'
p11677
sg5
S'kalorama'
p11678
ssS'7255'
p11679
(dp11680
g3
S'tas'
p11681
sg5
S'blue rocks'
p11682
ssS'1440'
p11683
(dp11684
g3
S'nsw'
p11685
sg5
S'waterloo'
p11686
ssS'8873'
p11687
(dp11688
g3
S'vic'
p11689
sg5
S'port melbourne'
p11690
ssS'7257'
p11691
(dp11692
g3
S'tas'
p11693
sg5
S'cape barren island'
p11694
ssS'7250'
p11695
(dp11696
g3
S'tas'
p11697
sg5
S'blackstone heights'
p11698
ssS'6011'
p11699
(dp11700
g3
S'wa'
p11701
sg5
S'cottesloe'
p11702
ssS'6010'
p11703
(dp11704
g3
S'wa'
p11705
sg5
S'claremont'
p11706
ssS'1291'
p11707
(dp11708
g3
S'nsw'
p11709
sg5
S'sydney'
p11710
ssS'6015'
p11711
(dp11712
g3
S'wa'
p11713
sg5
S'city beach'
p11714
ssS'7252'
p11715
(dp11716
g3
S'tas'
p11717
sg5
S'beechford'
p11718
ssS'1215'
p11719
(dp11720
g3
S'nsw'
p11721
sg5
S'australia square'
p11722
ssS'6016'
p11723
(dp11724
g3
S'wa'
p11725
sg5
S'glendalough'
p11726
ssS'6019'
p11727
(dp11728
g3
S'wa'
p11729
sg5
S'scarborough'
p11730
ssS'2490'
p11731
(dp11732
g3
S'nsw'
p11733
sg5
S'north tumbulgum'
p11734
ssS'3565'
p11735
(dp11736
g3
S'vic'
p11737
sg5
S'kotta'
p11738
ssS'1565'
p11739
(dp11740
g3
S'nsw'
p11741
sg5
S'milsons point'
p11742
ssS'7315'
p11743
(dp11744
g3
S'tas'
p11745
sg5
S'abbotsham'
p11746
ssS'4630'
p11747
(dp11748
g3
S'qld'
p11749
sg5
S'bancroft'
p11750
ssS'2259'
p11751
(dp11752
g3
S'nsw'
p11753
sg5
S'alison'
p11754
ssS'2258'
p11755
(dp11756
g3
S'nsw'
p11757
sg5
S'fountaindale'
p11758
ssS'2257'
p11759
(dp11760
g3
S'nsw'
p11761
sg5
S'booker bay'
p11762
ssS'2256'
p11763
(dp11764
g3
S'nsw'
p11765
sg5
S'blackwall'
p11766
ssS'2251'
p11767
(dp11768
g3
S'nsw'
p11769
sg5
S'avoca beach'
p11770
ssS'2250'
p11771
(dp11772
g3
S'nsw'
p11773
sg5
S'bucketty'
p11774
ssS'5159'
p11775
(dp11776
g3
S'sa'
p11777
sg5
S'aberfoyle park'
p11778
ssS'5158'
p11779
(dp11780
g3
S'sa'
p11781
sg5
S'hallett cove'
p11782
ssS'2475'
p11783
(dp11784
g3
S'nsw'
p11785
sg5
S'tooloom'
p11786
ssS'7316'
p11787
(dp11788
g3
S'tas'
p11789
sg5
S'camena'
p11790
ssS'2473'
p11791
(dp11792
g3
S'nsw'
p11793
sg5
S'doonbah'
p11794
ssS'2472'
p11795
(dp11796
g3
S'nsw'
p11797
sg5
S'broadwater'
p11798
ssS'2471'
p11799
(dp11800
g3
S'nsw'
p11801
sg5
S'bora ridge'
p11802
ssS'2470'
p11803
(dp11804
g3
S'nsw'
p11805
sg5
S'babyl creek'
p11806
ssS'5150'
p11807
(dp11808
g3
S'sa'
p11809
sg5
S'eagle on the hill'
p11810
ssS'5153'
p11811
(dp11812
g3
S'sa'
p11813
sg5
S'biggs flat'
p11814
ssS'5152'
p11815
(dp11816
g3
S'sa'
p11817
sg5
S'cleland'
p11818
ssS'5155'
p11819
(dp11820
g3
S'sa'
p11821
sg5
S'bridgewater'
p11822
ssS'5154'
p11823
(dp11824
g3
S'sa'
p11825
sg5
S'aldgate'
p11826
ssS'5157'
p11827
(dp11828
g3
S'sa'
p11829
sg5
S'ashbourne'
p11830
ssS'5156'
p11831
(dp11832
g3
S'sa'
p11833
sg5
S'upper sturt'
p11834
ssS'2785'
p11835
(dp11836
g3
S'nsw'
p11837
sg5
S'blackheath'
p11838
ssS'2784'
p11839
(dp11840
g3
S'nsw'
p11841
sg5
S'bullaburra'
p11842
ssS'2787'
p11843
(dp11844
g3
S'nsw'
p11845
sg5
S'black springs'
p11846
ssS'2786'
p11847
(dp11848
g3
S'nsw'
p11849
sg5
S'bell'
p11850
ssS'4804'
p11851
(dp11852
g3
S'qld'
p11853
sg5
S'collinsville'
p11854
ssS'2780'
p11855
(dp11856
g3
S'nsw'
p11857
sg5
S'katoomba'
p11858
ssS'2783'
p11859
(dp11860
g3
S'nsw'
p11861
sg5
S'lawson'
p11862
ssS'2782'
p11863
(dp11864
g3
S'nsw'
p11865
sg5
S'wentworth falls'
p11866
ssS'4808'
p11867
(dp11868
g3
S'qld'
p11869
sg5
S'brandon'
p11870
ssS'4809'
p11871
(dp11872
g3
S'qld'
p11873
sg5
S'barratta'
p11874
ssS'2079'
p11875
(dp11876
g3
S'nsw'
p11877
sg5
S'mount colah'
p11878
ssS'6309'
p11879
(dp11880
g3
S'wa'
p11881
sg5
S'east popanyinning'
p11882
ssS'6308'
p11883
(dp11884
g3
S'wa'
p11885
sg5
S'codjatotine'
p11886
ssS'2073'
p11887
(dp11888
g3
S'nsw'
p11889
sg5
S'pymble'
p11890
ssS'2072'
p11891
(dp11892
g3
S'nsw'
p11893
sg5
S'gordon'
p11894
ssS'2071'
p11895
(dp11896
g3
S'nsw'
p11897
sg5
S'east killara'
p11898
ssS'2070'
p11899
(dp11900
g3
S'nsw'
p11901
sg5
S'east lindfield'
p11902
ssS'2077'
p11903
(dp11904
g3
S'nsw'
p11905
sg5
S'asquith'
p11906
ssS'2076'
p11907
(dp11908
g3
S'nsw'
p11909
sg5
S'normanhurst'
p11910
ssS'2075'
p11911
(dp11912
g3
S'nsw'
p11913
sg5
S'st ives'
p11914
ssS'2074'
p11915
(dp11916
g3
S'nsw'
p11917
sg5
S'north turramurra'
p11918
ssS'6892'
p11919
(dp11920
g3
S'wa'
p11921
sg5
S'east perth'
p11922
ssS'3434'
p11923
(dp11924
g3
S'vic'
p11925
sg5
S'cherokee'
p11926
ssS'3509'
p11927
(dp11928
g3
S'vic'
p11929
sg5
S'linga'
p11930
ssS'7270'
p11931
(dp11932
g3
S'tas'
p11933
sg5
S'badger head'
p11934
ssS'5088'
p11935
(dp11936
g3
S'sa'
p11937
sg5
S'holden hill'
p11938
ssS'7276'
p11939
(dp11940
g3
S'tas'
p11941
sg5
S'gravelly beach'
p11942
ssS'7277'
p11943
(dp11944
g3
S'tas'
p11945
sg5
S'bridgenorth'
p11946
ssS'7275'
p11947
(dp11948
g3
S'tas'
p11949
sg5
S'blackwall'
p11950
ssS'3500'
p11951
(dp11952
g3
S'vic'
p11953
sg5
S'mildura'
p11954
ssS'3501'
p11955
(dp11956
g3
S'vic'
p11957
sg5
S'hattah'
p11958
ssS'3502'
p11959
(dp11960
g3
S'vic'
p11961
sg5
S'mildura'
p11962
ssS'5087'
p11963
(dp11964
g3
S'sa'
p11965
sg5
S'klemzig'
p11966
ssS'3505'
p11967
(dp11968
g3
S'vic'
p11969
sg5
S'birdwoodton'
p11970
ssS'3506'
p11971
(dp11972
g3
S'vic'
p11973
sg5
S'cowangie'
p11974
ssS'3507'
p11975
(dp11976
g3
S'vic'
p11977
sg5
S'walpeup'
p11978
ssS'2671'
p11979
(dp11980
g3
S'nsw'
p11981
sg5
S'alleena'
p11982
ssS'2672'
p11983
(dp11984
g3
S'nsw'
p11985
sg5
S'burgooney'
p11986
ssS'2675'
p11987
(dp11988
g3
S'nsw'
p11989
sg5
S'hillston'
p11990
ssS'2678'
p11991
(dp11992
g3
S'nsw'
p11993
sg5
S'charles sturt university'
p11994
ssS'8009'
p11995
(dp11996
g3
S'vic'
p11997
sg5
S'flinders lane'
p11998
ssS'6832'
p11999
(dp12000
g3
S'wa'
p12001
sg5
S'perth adelaide tce'
p12002
ssS'6831'
p12003
(dp12004
g3
S'wa'
p12005
sg5
S'perth st georges tce'
p12006
ssS'6830'
p12007
(dp12008
g3
S'wa'
p12009
sg5
S'perth'
p12010
ssS'6837'
p12011
(dp12012
g3
S'wa'
p12013
sg5
S'perth'
p12014
ssS'6839'
p12015
(dp12016
g3
S'wa'
p12017
sg5
S'perth'
p12018
ssS'6838'
p12019
(dp12020
g3
S'wa'
p12021
sg5
S'perth'
p12022
ssS'5331'
p12023
(dp12024
g3
S'sa'
p12025
sg5
S'kingston on murray'
p12026
ssS'5330'
p12027
(dp12028
g3
S'sa'
p12029
sg5
S'boolgun'
p12030
ssS'5333'
p12031
(dp12032
g3
S'sa'
p12033
sg5
S'bookpurnong'
p12034
ssS'5332'
p12035
(dp12036
g3
S'sa'
p12037
sg5
S'moorook'
p12038
ssS'3488'
p12039
(dp12040
g3
S'vic'
p12041
sg5
S'speed'
p12042
ssS'6850'
p12043
(dp12044
g3
S'wa'
p12045
sg5
S'cloisters square'
p12046
ssS'3214'
p12047
(dp12048
g3
S'vic'
p12049
sg5
S'corio'
p12050
ssS'3215'
p12051
(dp12052
g3
S'vic'
p12053
sg5
S'bell park'
p12054
ssS'3216'
p12055
(dp12056
g3
S'vic'
p12057
sg5
S'belmont'
p12058
ssS'3217'
p12059
(dp12060
g3
S'vic'
p12061
sg5
S'deakin university'
p12062
ssS'3211'
p12063
(dp12064
g3
S'vic'
p12065
sg5
S'little river'
p12066
ssS'3212'
p12067
(dp12068
g3
S'vic'
p12069
sg5
S'lara'
p12070
ssS'1639'
p12071
(dp12072
g3
S'nsw'
p12073
sg5
S'frenchs forest'
p12074
ssS'3218'
p12075
(dp12076
g3
S'vic'
p12077
sg5
S'geelong west'
p12078
ssS'3219'
p12079
(dp12080
g3
S'vic'
p12081
sg5
S'breakwater'
p12082
ssS'6754'
p12083
(dp12084
g3
S'wa'
p12085
sg5
S'paraburdoo'
p12086
ssS'2810'
p12087
(dp12088
g3
S'nsw'
p12089
sg5
S'bimbi'
p12090
ssS'3179'
p12091
(dp12092
g3
S'vic'
p12093
sg5
S'scoresby'
p12094
ssS'3178'
p12095
(dp12096
g3
S'vic'
p12097
sg5
S'rowville'
p12098
ssS'3171'
p12099
(dp12100
g3
S'vic'
p12101
sg5
S'sandown village'
p12102
ssS'3170'
p12103
(dp12104
g3
S'vic'
p12105
sg5
S'mulgrave'
p12106
ssS'3173'
p12107
(dp12108
g3
S'vic'
p12109
sg5
S'keysborough'
p12110
ssS'3172'
p12111
(dp12112
g3
S'vic'
p12113
sg5
S'dingley village'
p12114
ssS'3175'
p12115
(dp12116
g3
S'vic'
p12117
sg5
S'bangholme'
p12118
ssS'3174'
p12119
(dp12120
g3
S'vic'
p12121
sg5
S'noble park'
p12122
ssS'3177'
p12123
(dp12124
g3
S'vic'
p12125
sg5
S'doveton'
p12126
ssS'3379'
p12127
(dp12128
g3
S'vic'
p12129
sg5
S'bornes hill'
p12130
ssS'3378'
p12131
(dp12132
g3
S'vic'
p12133
sg5
S'tatyoon'
p12134
ssS'3377'
p12135
(dp12136
g3
S'vic'
p12137
sg5
S'ararat'
p12138
ssS'1187'
p12139
(dp12140
g3
S'nsw'
p12141
sg5
S'sydney'
p12142
ssS'3375'
p12143
(dp12144
g3
S'vic'
p12145
sg5
S'ballyrogan'
p12146
ssS'1185'
p12147
(dp12148
g3
S'nsw'
p12149
sg5
S'sydney'
p12150
ssS'3373'
p12151
(dp12152
g3
S'vic'
p12153
sg5
S'beaufort'
p12154
ssS'5420'
p12155
(dp12156
g3
S'sa'
p12157
sg5
S'canowie belt'
p12158
ssS'3371'
p12159
(dp12160
g3
S'vic'
p12161
sg5
S'amherst'
p12162
ssS'3370'
p12163
(dp12164
g3
S'vic'
p12165
sg5
S'clunes'
p12166
ssS'6461'
p12167
(dp12168
g3
S'wa'
p12169
sg5
S'dowerin'
p12170
ssS'1740'
p12171
(dp12172
g3
S'nsw'
p12173
sg5
S'parramatta'
p12174
ssS'1741'
p12175
(dp12176
g3
S'nsw'
p12177
sg5
S'parramatta'
p12178
ssS'1164'
p12179
(dp12180
g3
S'nsw'
p12181
sg5
S'sydney'
p12182
ssS'1165'
p12183
(dp12184
g3
S'nsw'
p12185
sg5
S'sydney'
p12186
ssS'1166'
p12187
(dp12188
g3
S'nsw'
p12189
sg5
S'sydney'
p12190
ssS'1167'
p12191
(dp12192
g3
S'nsw'
p12193
sg5
S'sydney'
p12194
ssS'1160'
p12195
(dp12196
g3
S'nsw'
p12197
sg5
S'sydney'
p12198
ssS'1161'
p12199
(dp12200
g3
S'nsw'
p12201
sg5
S'sydney'
p12202
ssS'1162'
p12203
(dp12204
g3
S'nsw'
p12205
sg5
S'sydney'
p12206
ssS'1163'
p12207
(dp12208
g3
S'nsw'
p12209
sg5
S'sydney'
p12210
ssS'9013'
p12211
(dp12212
g3
S'qld'
p12213
sg5
S'brisbane'
p12214
ssS'1168'
p12215
(dp12216
g3
S'nsw'
p12217
sg5
S'sydney'
p12218
ssS'1169'
p12219
(dp12220
g3
S'nsw'
p12221
sg5
S'sydney'
p12222
ssS'5520'
p12223
(dp12224
g3
S'sa'
p12225
sg5
S'barunga gap'
p12226
ssS'5521'
p12227
(dp12228
g3
S'sa'
p12229
sg5
S'redhill'
p12230
ssS'5522'
p12231
(dp12232
g3
S'sa'
p12233
sg5
S'fisherman bay'
p12234
ssS'5523'
p12235
(dp12236
g3
S'sa'
p12237
sg5
S'beetaloo'
p12238
ssS'6943'
p12239
(dp12240
g3
S'wa'
p12241
sg5
S'morley'
p12242
ssS'2583'
p12243
(dp12244
g3
S'nsw'
p12245
sg5
S'bigga'
p12246
ssS'6941'
p12247
(dp12248
g3
S'wa'
p12249
sg5
S'mirrabooka'
p12250
ssS'6467'
p12251
(dp12252
g3
S'wa'
p12253
sg5
S'burakin'
p12254
ssS'6946'
p12255
(dp12256
g3
S'wa'
p12257
sg5
S'wanneroo'
p12258
ssS'2582'
p12259
(dp12260
g3
S'nsw'
p12261
sg5
S'bango'
p12262
ssS'2913'
p12263
(dp12264
g3
S'act'
p12265
sg5
S'franklin'
p12266
ssS'3302'
p12267
(dp12268
g3
S'vic'
p12269
sg5
S'branxholme'
p12270
ssS'3195'
p12271
(dp12272
g3
S'vic'
p12273
sg5
S'aspendale'
p12274
ssS'3303'
p12275
(dp12276
g3
S'vic'
p12277
sg5
S'breakaway creek'
p12278
ssS'1298'
p12279
(dp12280
g3
S'nsw'
p12281
sg5
S'sydney'
p12282
ssS'3194'
p12283
(dp12284
g3
S'vic'
p12285
sg5
S'mentone'
p12286
ssS'1292'
p12287
(dp12288
g3
S'nsw'
p12289
sg5
S'sydney'
p12290
ssS'1293'
p12291
(dp12292
g3
S'nsw'
p12293
sg5
S'sydney'
p12294
ssS'3301'
p12295
(dp12296
g3
S'vic'
p12297
sg5
S'bochara'
p12298
ssS'1296'
p12299
(dp12300
g3
S'nsw'
p12301
sg5
S'sydney'
p12302
ssS'1297'
p12303
(dp12304
g3
S'nsw'
p12305
sg5
S'sydney'
p12306
ssS'1294'
p12307
(dp12308
g3
S'nsw'
p12309
sg5
S'sydney'
p12310
ssS'1295'
p12311
(dp12312
g3
S'nsw'
p12313
sg5
S'sydney'
p12314
ssS'8399'
p12315
(dp12316
g3
S'vic'
p12317
sg5
S'melbourne'
p12318
ssS'1712'
p12319
(dp12320
g3
S'nsw'
p12321
sg5
S'epping'
p12322
ssS'8394'
p12323
(dp12324
g3
S'vic'
p12325
sg5
S'melbourne'
p12326
ssS'8396'
p12327
(dp12328
g3
S'vic'
p12329
sg5
S'melbourne'
p12330
ssS'8390'
p12331
(dp12332
g3
S'vic'
p12333
sg5
S'melbourne'
p12334
ssS'8393'
p12335
(dp12336
g3
S'vic'
p12337
sg5
S'melbourne'
p12338
ssS'1710'
p12339
(dp12340
g3
S'nsw'
p12341
sg5
S'epping'
p12342
ssS'8557'
p12343
(dp12344
g3
S'vic'
p12345
sg5
S'fitzroy'
p12346
ssS'8004'
p12347
(dp12348
g3
S'vic'
p12349
sg5
S'st kilda road'
p12350
ssS'8005'
p12351
(dp12352
g3
S'vic'
p12353
sg5
S'world trade centre'
p12354
ssS'8006'
p12355
(dp12356
g3
S'vic'
p12357
sg5
S'abeckett street'
p12358
ssS'8001'
p12359
(dp12360
g3
S'vic'
p12361
sg5
S'melbourne'
p12362
ssS'8002'
p12363
(dp12364
g3
S'vic'
p12365
sg5
S'east melbourne'
p12366
ssS'1715'
p12367
(dp12368
g3
S'nsw'
p12369
sg5
S'pennant hills'
p12370
ssS'4390'
p12371
(dp12372
g3
S'qld'
p12373
sg5
S'billa billa'
p12374
ssS'5630'
p12375
(dp12376
g3
S'sa'
p12377
sg5
S'edillilie'
p12378
ssS'5631'
p12379
(dp12380
g3
S'sa'
p12381
sg5
S'cockaleechie'
p12382
ssS'5632'
p12383
(dp12384
g3
S'sa'
p12385
sg5
S'kapinnie'
p12386
ssS'5633'
p12387
(dp12388
g3
S'sa'
p12389
sg5
S'boonerdo'
p12390
ssS'3197'
p12391
(dp12392
g3
S'vic'
p12393
sg5
S'carrum'
p12394
ssS'3196'
p12395
(dp12396
g3
S'vic'
p12397
sg5
S'bonbeach'
p12398
ssS'7469'
p12399
(dp12400
g3
S'tas'
p12401
sg5
S'granville harbour'
p12402
ssS'7468'
p12403
(dp12404
g3
S'tas'
p12405
sg5
S'macquarie heads'
p12406
ssS'3193'
p12407
(dp12408
g3
S'vic'
p12409
sg5
S'beaumaris'
p12410
ssS'3192'
p12411
(dp12412
g3
S'vic'
p12413
sg5
S'cheltenham'
p12414
ssS'3191'
p12415
(dp12416
g3
S'vic'
p12417
sg5
S'sandringham'
p12418
ssS'3190'
p12419
(dp12420
g3
S'vic'
p12421
sg5
S'highett'
p12422
ssS'7467'
p12423
(dp12424
g3
S'tas'
p12425
sg5
S'lake margaret'
p12426
ssS'7466'
p12427
(dp12428
g3
S'tas'
p12429
sg5
S'gormanston'
p12430
ssS'3199'
p12431
(dp12432
g3
S'vic'
p12433
sg5
S'frankston'
p12434
ssS'3198'
p12435
(dp12436
g3
S'vic'
p12437
sg5
S'belvedere park'
p12438
ss.